

Microchip MPLAB XC8 Assembler V2.41 build 20230208172133 
                                                                                               Tue Dec 19 18:49:14 2023

Microchip MPLAB XC8 C Compiler v2.41 (Free license) build 20230208172133 Og1 
     1                           	processor	18F4580
     2                           	fnconf	rparam,??,?,0
     3                           	pagewidth 120
     4                           	opt	flic
     5                           	psect	idataCOMRAM,global,class=CODE,delta=1,noexec
     6                           	psect	smallconst,global,reloc=2,class=SMALLCONST,delta=1,noexec
     7                           	psect	cinit,global,reloc=2,class=CODE,delta=1
     8                           	psect	bssCOMRAM,global,class=COMRAM,space=1,delta=1,lowdata,noexec
     9                           	psect	dataCOMRAM,global,class=COMRAM,space=1,delta=1,lowdata,noexec
    10                           	psect	cstackCOMRAM,global,class=COMRAM,space=1,delta=1,lowdata,noexec
    11                           	psect	text0,global,reloc=2,class=CODE,delta=1
    12                           	psect	text1,global,reloc=2,class=CODE,delta=1
    13                           	psect	text2,global,reloc=2,class=CODE,delta=1
    14                           	psect	text3,global,reloc=2,class=CODE,delta=1
    15                           	psect	text4,global,reloc=2,class=CODE,delta=1
    16                           	psect	text5,global,reloc=2,class=CODE,delta=1
    17                           	psect	text6,global,reloc=2,class=CODE,delta=1
    18                           	psect	text7,global,reloc=2,class=CODE,delta=1
    19                           	psect	text8,global,reloc=2,class=CODE,delta=1
    20                           	psect	text9,global,reloc=2,class=CODE,delta=1
    21                           	psect	text10,global,reloc=2,class=CODE,delta=1
    22                           	psect	text11,global,reloc=2,class=CODE,delta=1,group=1
    23                           	psect	text12,global,reloc=2,class=CODE,delta=1,group=1
    24                           	psect	text13,global,reloc=2,class=CODE,delta=1,group=1
    25                           	psect	text14,global,reloc=2,class=CODE,delta=1,group=1
    26                           	psect	text15,global,reloc=2,class=CODE,delta=1,group=1
    27                           	psect	text16,global,reloc=2,class=CODE,delta=1
    28                           	psect	text17,global,reloc=2,class=CODE,delta=1
    29                           	psect	text18,global,reloc=2,class=CODE,delta=1
    30                           	psect	text19,global,reloc=2,class=CODE,delta=1
    31                           	psect	text20,global,reloc=2,class=CODE,delta=1
    32                           	psect	intsave_regs,global,class=BIGRAM,space=1,delta=1,noexec
    33                           	psect	rparam,global,class=COMRAM,space=1,delta=1,noexec
    34                           	psect	idloc,global,abs,ovrld,class=IDLOC,space=5,delta=1,noexec
    35                           	psect	config,global,abs,ovrld,class=CONFIG,space=4,delta=1,noexec
    36   000000                     
    37                           ; Version 2.20
    38                           ; Generated 12/02/2020 GMT
    39                           ; 
    40                           ; Copyright © 2020, Microchip Technology Inc. and its subsidiaries ("Microchip")
    41                           ; All rights reserved.
    42                           ; 
    43                           ; This software is developed by Microchip Technology Inc. and its subsidiaries ("Microch
      +                          ip").
    44                           ; 
    45                           ; Redistribution and use in source and binary forms, with or without modification, are
    46                           ; permitted provided that the following conditions are met:
    47                           ; 
    48                           ;     1. Redistributions of source code must retain the above copyright notice, this lis
      +                          t of
    49                           ;        conditions and the following disclaimer.
    50                           ; 
    51                           ;     2. Redistributions in binary form must reproduce the above copyright notice, this 
      +                          list
    52                           ;        of conditions and the following disclaimer in the documentation and/or other
    53                           ;        materials provided with the distribution.
    54                           ; 
    55                           ;     3. Microchip's name may not be used to endorse or promote products derived from th
      +                          is
    56                           ;        software without specific prior written permission.
    57                           ; 
    58                           ; THIS SOFTWARE IS PROVIDED BY MICROCHIP "AS IS" AND ANY EXPRESS OR IMPLIED WARRANTIES,
    59                           ; INCLUDING, BUT NOT LIMITED TO, THE IMPLIED WARRANTIES OF MERCHANTABILITY AND FITNESS F
      +                          OR
    60                           ; PURPOSE ARE DISCLAIMED.  IN NO EVENT SHALL MICROCHIP BE LIABLE FOR ANY DIRECT, INDIREC
      +                          T,
    61                           ; INCIDENTAL, SPECIAL, EXEMPLARY, OR CONSEQUENTIAL DAMAGES (INCLUDING BUT NOT LIMITED TO
    62                           ; PROCUREMENT OF SUBSTITUTE GOODS OR SERVICES; LOSS OF USE, DATA OR PROFITS; OR BUSINESS
    63                           ; INTERRUPTION) HOWSOEVER CAUSED AND ON ANY THEORY OF LIABILITY, WHETHER IN CONTRACT, ST
      +                          RICT
    64                           ; LIABILITY, OR TORT (INCLUDING NEGLIGENCE OR OTHERWISE) ARISING IN ANY WAY OUT OF THE U
      +                          SE OF
    65                           ; THIS SOFTWARE, EVEN IF ADVISED OF THE POSSIBILITY OF SUCH DAMAGE.
    66                           ; 
    67                           ; 
    68                           ; Code-generator required, PIC18F4580 Definitions
    69                           ; 
    70                           ; SFR Addresses
    71   000000                     
    72                           	psect	idataCOMRAM
    73   001656                     __pidataCOMRAM:
    74                           	callstack 0
    75                           
    76                           ;initializer for _signature
    77   001656  99                 	db	low STR_1
    78   001657  06                 	db	high STR_1
    79   001658  A8                 	db	low STR_2
    80   001659  06                 	db	high STR_2
    81   00165A  9C                 	db	low STR_3
    82   00165B  06                 	db	high STR_3
    83   00165C  9F                 	db	low STR_4
    84   00165D  06                 	db	high STR_4
    85   00165E  A2                 	db	low STR_5
    86   00165F  06                 	db	high STR_5
    87   001660  A5                 	db	low STR_6
    88   001661  06                 	db	high STR_6
    89   001662  AE                 	db	low STR_7
    90   001663  06                 	db	high STR_7
    91   001664  AB                 	db	low STR_8
    92   001665  06                 	db	high STR_8
    93                           
    94                           ;initializer for login_screen@F10491
    95   001666  31                 	db	49
    96   001667  30                 	db	48
    97   001668  31                 	db	49
    98   001669  30                 	db	48
    99                           
   100                           ;initializer for display_signature@gear
   101   00166A  0007               	dw	7
   102                           
   103                           ;initializer for read_matrix_keypad@once
   104   00166C  01                 	db	1
   105   000000                     _ADCON0	set	4034
   106   000000                     _TRISD	set	3989
   107   000000                     _GO	set	32273
   108   000000                     _ADFM	set	32263
   109   000000                     _ACQT0	set	32259
   110   000000                     _ACQT1	set	32260
   111   000000                     _PCFG0	set	32264
   112   000000                     _PCFG1	set	32265
   113   000000                     _PCFG2	set	32266
   114   000000                     _PCFG3	set	32267
   115   000000                     _VCFG0	set	32268
   116   000000                     _RB4	set	31756
   117   000000                     _RB3	set	31755
   118   000000                     _RB2	set	31754
   119   000000                     _RB1	set	31753
   120   000000                     _RB7	set	31759
   121   000000                     _RB6	set	31758
   122   000000                     _RD7	set	31775
   123   000000                     _RC0	set	31760
   124   000000                     _RC2	set	31762
   125   000000                     _RB5	set	31757
   126   000000                     _RC1	set	31761
   127   000000                     _TRISB	set	3987
   128   000000                     _TRISC	set	3988
   129   000000                     _PORTD	set	3971
   130   000000                     _TRISD7	set	31919
   131   000000                     _ACQT2	set	32261
   132   000000                     _VCFG1	set	32269
   133   000000                     _ADON	set	32272
   134   000000                     _RBPU	set	32655
   135   000000                     _ADRESH	set	4036
   136   000000                     _ADRESL	set	4035
   137                           
   138                           	psect	smallconst
   139   000600                     __psmallconst:
   140                           	callstack 0
   141   000600  00                 	db	0
   142   000601                     STR_23:
   143   000601  20                 	db	32
   144   000602  20                 	db	32
   145   000603  20                 	db	32
   146   000604  20                 	db	32
   147   000605  20                 	db	32
   148   000606  20                 	db	32
   149   000607  20                 	db	32
   150   000608  20                 	db	32
   151   000609  20                 	db	32
   152   00060A  20                 	db	32
   153   00060B  20                 	db	32
   154   00060C  20                 	db	32
   155   00060D  20                 	db	32
   156   00060E  20                 	db	32
   157   00060F  20                 	db	32
   158   000610  20                 	db	32
   159   000611  00                 	db	0
   160   000612                     STR_25:
   161   000612  20                 	db	32
   162   000613  20                 	db	32
   163   000614  20                 	db	32
   164   000615  20                 	db	32
   165   000616  20                 	db	32
   166   000617  53                 	db	83	;'S'
   167   000618  45                 	db	69	;'E'
   168   000619  54                 	db	84	;'T'
   169   00061A  5F                 	db	95	;'_'
   170   00061B  4C                 	db	76	;'L'
   171   00061C  4F                 	db	79	;'O'
   172   00061D  47                 	db	71	;'G'
   173   00061E  20                 	db	32
   174   00061F  20                 	db	32
   175   000620  20                 	db	32
   176   000621  20                 	db	32
   177   000622  00                 	db	0
   178   000623                     STR_24:
   179   000623  20                 	db	32
   180   000624  20                 	db	32
   181   000625  20                 	db	32
   182   000626  20                 	db	32
   183   000627  56                 	db	86	;'V'
   184   000628  49                 	db	73	;'I'
   185   000629  45                 	db	69	;'E'
   186   00062A  57                 	db	87	;'W'
   187   00062B  5F                 	db	95	;'_'
   188   00062C  4C                 	db	76	;'L'
   189   00062D  4F                 	db	79	;'O'
   190   00062E  47                 	db	71	;'G'
   191   00062F  20                 	db	32
   192   000630  20                 	db	32
   193   000631  20                 	db	32
   194   000632  20                 	db	32
   195   000633  00                 	db	0
   196   000634                     STR_22:
   197   000634  20                 	db	32
   198   000635  20                 	db	32
   199   000636  20                 	db	32
   200   000637  20                 	db	32
   201   000638  57                 	db	87	;'W'
   202   000639  41                 	db	65	;'A'
   203   00063A  49                 	db	73	;'I'
   204   00063B  54                 	db	84	;'T'
   205   00063C  5F                 	db	95	;'_'
   206   00063D  46                 	db	70	;'F'
   207   00063E  4F                 	db	79	;'O'
   208   00063F  52                 	db	82	;'R'
   209   000640  20                 	db	32
   210   000641  20                 	db	32
   211   000642  20                 	db	32
   212   000643  20                 	db	32
   213   000644  00                 	db	0
   214   000645                     STR_18:
   215   000645  20                 	db	32
   216   000646  45                 	db	69	;'E'
   217   000647  4E                 	db	78	;'N'
   218   000648  54                 	db	84	;'T'
   219   000649  45                 	db	69	;'E'
   220   00064A  52                 	db	82	;'R'
   221   00064B  20                 	db	32
   222   00064C  50                 	db	80	;'P'
   223   00064D  41                 	db	65	;'A'
   224   00064E  53                 	db	83	;'S'
   225   00064F  53                 	db	83	;'S'
   226   000650  57                 	db	87	;'W'
   227   000651  4F                 	db	79	;'O'
   228   000652  52                 	db	82	;'R'
   229   000653  44                 	db	68	;'D'
   230   000654  20                 	db	32
   231   000655  00                 	db	0
   232   000656                     STR_20:
   233   000656  20                 	db	32
   234   000657  57                 	db	87	;'W'
   235   000658  52                 	db	82	;'R'
   236   000659  4F                 	db	79	;'O'
   237   00065A  4E                 	db	78	;'N'
   238   00065B  47                 	db	71	;'G'
   239   00065C  5F                 	db	95	;'_'
   240   00065D  50                 	db	80	;'P'
   241   00065E  41                 	db	65	;'A'
   242   00065F  53                 	db	83	;'S'
   243   000660  53                 	db	83	;'S'
   244   000661  57                 	db	87	;'W'
   245   000662  4F                 	db	79	;'O'
   246   000663  52                 	db	82	;'R'
   247   000664  44                 	db	68	;'D'
   248   000665  20                 	db	32
   249   000666  00                 	db	0
   250   000667                     STR_21:
   251   000667  20                 	db	32
   252   000668  20                 	db	32
   253   000669  41                 	db	65	;'A'
   254   00066A  74                 	db	116	;'t'
   255   00066B  74                 	db	116	;'t'
   256   00066C  65                 	db	101	;'e'
   257   00066D  6D                 	db	109	;'m'
   258   00066E  70                 	db	112	;'p'
   259   00066F  74                 	db	116	;'t'
   260   000670  73                 	db	115	;'s'
   261   000671  20                 	db	32
   262   000672  6C                 	db	108	;'l'
   263   000673  65                 	db	101	;'e'
   264   000674  66                 	db	102	;'f'
   265   000675  74                 	db	116	;'t'
   266   000676  20                 	db	32
   267   000677  00                 	db	0
   268   000678                     STR_19:
   269   000678  43                 	db	67	;'C'
   270   000679  6F                 	db	111	;'o'
   271   00067A  72                 	db	114	;'r'
   272   00067B  72                 	db	114	;'r'
   273   00067C  65                 	db	101	;'e'
   274   00067D  63                 	db	99	;'c'
   275   00067E  74                 	db	116	;'t'
   276   00067F  20                 	db	32
   277   000680  50                 	db	80	;'P'
   278   000681  61                 	db	97	;'a'
   279   000682  73                 	db	115	;'s'
   280   000683  73                 	db	115	;'s'
   281   000684  77                 	db	119	;'w'
   282   000685  6F                 	db	111	;'o'
   283   000686  72                 	db	114	;'r'
   284   000687  64                 	db	100	;'d'
   285   000688  00                 	db	0
   286   000689                     STR_17:
   287   000689  20                 	db	32
   288   00068A  20                 	db	32
   289   00068B  54                 	db	84	;'T'
   290   00068C  69                 	db	105	;'i'
   291   00068D  6D                 	db	109	;'m'
   292   00068E  65                 	db	101	;'e'
   293   00068F  72                 	db	114	;'r'
   294   000690  20                 	db	32
   295   000691  20                 	db	32
   296   000692  20                 	db	32
   297   000693  45                 	db	69	;'E'
   298   000694  20                 	db	32
   299   000695  20                 	db	32
   300   000696  53                 	db	83	;'S'
   301   000697  50                 	db	80	;'P'
   302   000698  00                 	db	0
   303   000699                     STR_1:
   304   000699  43                 	db	67	;'C'
   305   00069A  20                 	db	32
   306   00069B  00                 	db	0
   307   00069C                     STR_3:
   308   00069C  47                 	db	71	;'G'
   309   00069D  31                 	db	49	;'1'
   310   00069E  00                 	db	0
   311   00069F                     STR_4:
   312   00069F  47                 	db	71	;'G'
   313   0006A0  32                 	db	50	;'2'
   314   0006A1  00                 	db	0
   315   0006A2                     STR_5:
   316   0006A2  47                 	db	71	;'G'
   317   0006A3  33                 	db	51	;'3'
   318   0006A4  00                 	db	0
   319   0006A5                     STR_6:
   320   0006A5  47                 	db	71	;'G'
   321   0006A6  34                 	db	52	;'4'
   322   0006A7  00                 	db	0
   323   0006A8                     STR_2:
   324   0006A8  47                 	db	71	;'G'
   325   0006A9  4E                 	db	78	;'N'
   326   0006AA  00                 	db	0
   327   0006AB                     STR_8:
   328   0006AB  4F                 	db	79	;'O'
   329   0006AC  4E                 	db	78	;'N'
   330   0006AD  00                 	db	0
   331   0006AE                     STR_7:
   332   0006AE  47                 	db	71	;'G'
   333   0006AF  52                 	db	82	;'R'
   334   0006B0  00                 	db	0
   335   0006B1  00                 	db	0	; dummy byte at the end
   336   000000                     
   337                           ; #config settings
   338                           
   339                           	psect	cinit
   340   0015D2                     __pcinit:
   341                           	callstack 0
   342   0015D2                     start_initialization:
   343                           	callstack 0
   344   0015D2                     __initialization:
   345                           	callstack 0
   346                           
   347                           ; Initialize objects allocated to COMRAM (23 bytes)
   348                           ; load TBLPTR registers with __pidataCOMRAM
   349   0015D2  0E56               	movlw	low __pidataCOMRAM
   350   0015D4  6EF6               	movwf	tblptrl,c
   351   0015D6  0E16               	movlw	high __pidataCOMRAM
   352   0015D8  6EF7               	movwf	tblptrh,c
   353   0015DA  0E00               	movlw	low (__pidataCOMRAM shr (0+16))
   354   0015DC  6EF8               	movwf	tblptru,c
   355   0015DE  EE00  F03D         	lfsr	0,__pdataCOMRAM
   356   0015E2  EE10 F017          	lfsr	1,23
   357   0015E6                     copy_data0:
   358   0015E6  0009               	tblrd		*+
   359   0015E8  CFF5 FFEE          	movff	tablat,postinc0
   360   0015EC  50E5               	movf	postdec1,w,c
   361   0015EE  50E1               	movf	fsr1l,w,c
   362   0015F0  E1FA               	bnz	copy_data0
   363                           
   364                           ; Clear objects allocated to COMRAM (1 bytes)
   365   0015F2  6A54               	clrf	__pbssCOMRAM& (0+255),c
   366   0015F4                     end_of_initialization:
   367                           	callstack 0
   368   0015F4                     __end_of__initialization:
   369                           	callstack 0
   370   0015F4  0E00               	movlw	low (__Lsmallconst shr (0+16))
   371   0015F6  6EF8               	movwf	tblptru,c
   372   0015F8  0E06               	movlw	high __Lsmallconst
   373   0015FA  6EF7               	movwf	tblptrh,c
   374   0015FC  0100               	movlb	0
   375   0015FE  EF92  F009         	goto	_main	;jump to C main() function
   376                           
   377                           	psect	bssCOMRAM
   378   000054                     __pbssCOMRAM:
   379                           	callstack 0
   380   000054                     _control_flag:
   381                           	callstack 0
   382   000054                     	ds	1
   383                           
   384                           	psect	dataCOMRAM
   385   00003D                     __pdataCOMRAM:
   386                           	callstack 0
   387   00003D                     _signature:
   388                           	callstack 0
   389   00003D                     	ds	16
   390   00004D                     login_screen@F10491:
   391                           	callstack 0
   392   00004D                     	ds	4
   393   000051                     display_signature@gear:
   394                           	callstack 0
   395   000051                     	ds	2
   396   000053                     read_matrix_keypad@once:
   397                           	callstack 0
   398   000053                     	ds	1
   399                           
   400                           	psect	cstackCOMRAM
   401   000001                     __pcstackCOMRAM:
   402                           	callstack 0
   403   000001                     ?_read_adc:
   404                           	callstack 0
   405   000001                     ?___lwdiv:
   406                           	callstack 0
   407   000001                     ?___lwmod:
   408                           	callstack 0
   409   000001                     clcd_write@control_bit:
   410                           	callstack 0
   411   000001                     read_matrix_keypad@detection:
   412                           	callstack 0
   413   000001                     ___lwdiv@dividend:
   414                           	callstack 0
   415   000001                     ___lwmod@dividend:
   416                           	callstack 0
   417                           
   418                           ; 2 bytes @ 0x0
   419   000001                     	ds	1
   420   000002                     clcd_write@byte:
   421                           	callstack 0
   422   000002                     read_matrix_keypad@key:
   423                           	callstack 0
   424                           
   425                           ; 1 bytes @ 0x1
   426   000002                     	ds	1
   427   000003                     ??_init_clcd:
   428   000003                     ??_read_adc:
   429   000003                     clcd_print@data:
   430                           	callstack 0
   431   000003                     ___lwdiv@divisor:
   432                           	callstack 0
   433   000003                     ___lwmod@divisor:
   434                           	callstack 0
   435                           
   436                           ; 2 bytes @ 0x2
   437   000003                     	ds	2
   438   000005                     clcd_print@addr:
   439                           	callstack 0
   440   000005                     ___lwmod@counter:
   441                           	callstack 0
   442   000005                     ___lwdiv@quotient:
   443                           	callstack 0
   444                           
   445                           ; 2 bytes @ 0x4
   446   000005                     	ds	1
   447   000006                     ??_display_signature:
   448                           
   449                           ; 1 bytes @ 0x5
   450   000006                     	ds	1
   451   000007                     ___lwdiv@counter:
   452                           	callstack 0
   453   000007                     display_signature@gear_key:
   454                           	callstack 0
   455                           
   456                           ; 2 bytes @ 0x6
   457   000007                     	ds	1
   458   000008                     clcd_putch@addr:
   459                           	callstack 0
   460   000008                     read_adc@channel:
   461                           	callstack 0
   462                           
   463                           ; 1 bytes @ 0x7
   464   000008                     	ds	1
   465   000009                     ?___xxtofl:
   466                           	callstack 0
   467   000009                     clcd_putch@data:
   468                           	callstack 0
   469   000009                     ___xxtofl@val:
   470                           	callstack 0
   471                           
   472                           ; 4 bytes @ 0x8
   473   000009                     	ds	1
   474   00000A                     
   475                           ; 1 bytes @ 0x9
   476   00000A                     	ds	2
   477   00000C                     login_screen@password:
   478                           	callstack 0
   479                           
   480                           ; 4 bytes @ 0xB
   481   00000C                     	ds	1
   482   00000D                     ??___xxtofl:
   483                           
   484                           ; 1 bytes @ 0xC
   485   00000D                     	ds	3
   486   000010                     login_screen@user_in:
   487                           	callstack 0
   488                           
   489                           ; 5 bytes @ 0xF
   490   000010                     	ds	1
   491   000011                     ___xxtofl@sign:
   492                           	callstack 0
   493                           
   494                           ; 1 bytes @ 0x10
   495   000011                     	ds	1
   496   000012                     ___xxtofl@exp:
   497                           	callstack 0
   498                           
   499                           ; 1 bytes @ 0x11
   500   000012                     	ds	1
   501   000013                     ___xxtofl@arg:
   502                           	callstack 0
   503                           
   504                           ; 4 bytes @ 0x12
   505   000013                     	ds	2
   506   000015                     login_screen@i_194:
   507                           	callstack 0
   508                           
   509                           ; 4 bytes @ 0x14
   510   000015                     	ds	2
   511   000017                     ?___fldiv:
   512                           	callstack 0
   513   000017                     ___fldiv@b:
   514                           	callstack 0
   515                           
   516                           ; 4 bytes @ 0x16
   517   000017                     	ds	2
   518   000019                     login_screen@wait:
   519                           	callstack 0
   520                           
   521                           ; 2 bytes @ 0x18
   522   000019                     	ds	2
   523   00001B                     login_screen@enter:
   524                           	callstack 0
   525   00001B                     ___fldiv@a:
   526                           	callstack 0
   527                           
   528                           ; 4 bytes @ 0x1A
   529   00001B                     	ds	1
   530   00001C                     login_screen@i:
   531                           	callstack 0
   532                           
   533                           ; 2 bytes @ 0x1B
   534   00001C                     	ds	2
   535   00001E                     login_screen@success:
   536                           	callstack 0
   537                           
   538                           ; 2 bytes @ 0x1D
   539   00001E                     	ds	1
   540   00001F                     ??___fldiv:
   541                           
   542                           ; 1 bytes @ 0x1E
   543   00001F                     	ds	1
   544   000020                     login_screen@cursor_flag:
   545                           	callstack 0
   546                           
   547                           ; 1 bytes @ 0x1F
   548   000020                     	ds	1
   549   000021                     login_screen@check:
   550                           	callstack 0
   551                           
   552                           ; 2 bytes @ 0x20
   553   000021                     	ds	2
   554   000023                     login_screen@chance:
   555                           	callstack 0
   556   000023                     ___fldiv@rem:
   557                           	callstack 0
   558                           
   559                           ; 4 bytes @ 0x22
   560   000023                     	ds	1
   561   000024                     login_screen@pass_key:
   562                           	callstack 0
   563                           
   564                           ; 1 bytes @ 0x23
   565   000024                     	ds	1
   566   000025                     login_screen@count:
   567                           	callstack 0
   568                           
   569                           ; 2 bytes @ 0x24
   570   000025                     	ds	2
   571   000027                     ___fldiv@sign:
   572                           	callstack 0
   573                           
   574                           ; 1 bytes @ 0x26
   575   000027                     	ds	1
   576   000028                     ___fldiv@new_exp:
   577                           	callstack 0
   578                           
   579                           ; 2 bytes @ 0x27
   580   000028                     	ds	2
   581   00002A                     ___fldiv@grs:
   582                           	callstack 0
   583                           
   584                           ; 4 bytes @ 0x29
   585   00002A                     	ds	4
   586   00002E                     ___fldiv@bexp:
   587                           	callstack 0
   588                           
   589                           ; 1 bytes @ 0x2D
   590   00002E                     	ds	1
   591   00002F                     ___fldiv@aexp:
   592                           	callstack 0
   593                           
   594                           ; 1 bytes @ 0x2E
   595   00002F                     	ds	1
   596   000030                     ?___fltol:
   597                           	callstack 0
   598   000030                     ___fltol@f1:
   599                           	callstack 0
   600                           
   601                           ; 4 bytes @ 0x2F
   602   000030                     	ds	4
   603   000034                     ??___fltol:
   604                           
   605                           ; 1 bytes @ 0x33
   606   000034                     	ds	4
   607   000038                     ___fltol@sign1:
   608                           	callstack 0
   609                           
   610                           ; 1 bytes @ 0x37
   611   000038                     	ds	1
   612   000039                     ___fltol@exp1:
   613                           	callstack 0
   614                           
   615                           ; 1 bytes @ 0x38
   616   000039                     	ds	1
   617   00003A                     display_speed@speed:
   618                           	callstack 0
   619                           
   620                           ; 2 bytes @ 0x39
   621   00003A                     	ds	2
   622   00003C                     main@key:
   623                           	callstack 0
   624                           
   625                           ; 1 bytes @ 0x3B
   626   00003C                     	ds	1
   627                           
   628 ;;
   629 ;;Main: autosize = 0, tempsize = 0, incstack = 0, save=0
   630 ;;
   631 ;; *************** function _main *****************
   632 ;; Defined at:
   633 ;;		line 21 in file "main.c"
   634 ;; Parameters:    Size  Location     Type
   635 ;;		None
   636 ;; Auto vars:     Size  Location     Type
   637 ;;  flag            2    0        unsigned int 
   638 ;;  key             1   59[COMRAM] unsigned char 
   639 ;; Return value:  Size  Location     Type
   640 ;;                  1    wreg      void 
   641 ;; Registers used:
   642 ;;		wreg, fsr1l, fsr1h, fsr2l, fsr2h, status,2, status,0, tblptrl, tblptrh, tblptru, cstack
   643 ;; Tracked objects:
   644 ;;		On entry : 0/0
   645 ;;		On exit  : 0/0
   646 ;;		Unchanged: 0/0
   647 ;; Data sizes:     COMRAM   BANK0   BANK1   BANK2   BANK3   BANK4   BANK5
   648 ;;      Params:         0       0       0       0       0       0       0
   649 ;;      Locals:         1       0       0       0       0       0       0
   650 ;;      Temps:          0       0       0       0       0       0       0
   651 ;;      Totals:         1       0       0       0       0       0       0
   652 ;;Total ram usage:        1 bytes
   653 ;; Hardware stack levels required when called: 4
   654 ;; This function calls:
   655 ;;		_display_default_screen
   656 ;;		_display_menu_screen
   657 ;;		_init_configure
   658 ;;		_login_screen
   659 ;;		_read_matrix_keypad
   660 ;; This function is called by:
   661 ;;		Startup code after reset
   662 ;; This function uses a non-reentrant model
   663 ;;
   664                           
   665                           	psect	text0
   666   001324                     __ptext0:
   667                           	callstack 0
   668   001324                     _main:
   669                           	callstack 27
   670   001324                     
   671                           ;main.c: 22:     unsigned char key;;main.c: 23:     init_configure();
   672   001324  EC42  F00B         	call	_init_configure	;wreg free
   673   001328                     l2018:
   674                           
   675                           ;main.c: 27:     {;main.c: 28:         key =read_matrix_keypad(1);
   676   001328  0E01               	movlw	1
   677   00132A  ECDE  F009         	call	_read_matrix_keypad
   678   00132E  6E3C               	movwf	main@key^0,c
   679   001330                     
   680                           ;main.c: 29:         if(key == 10 ||key == 11 || key ==12)
   681   001330  0E0A               	movlw	10
   682   001332  183C               	xorwf	main@key^0,w,c
   683   001334  B4D8               	btfsc	status,2,c
   684   001336  EF9F  F009         	goto	u1701
   685   00133A  EFA1  F009         	goto	u1700
   686   00133E                     u1701:
   687   00133E  EFB3  F009         	goto	l2026
   688   001342                     u1700:
   689   001342  0E0B               	movlw	11
   690   001344  183C               	xorwf	main@key^0,w,c
   691   001346  B4D8               	btfsc	status,2,c
   692   001348  EFA8  F009         	goto	u1711
   693   00134C  EFAA  F009         	goto	u1710
   694   001350                     u1711:
   695   001350  EFB3  F009         	goto	l2026
   696   001354                     u1710:
   697   001354  0E0C               	movlw	12
   698   001356  183C               	xorwf	main@key^0,w,c
   699   001358  A4D8               	btfss	status,2,c
   700   00135A  EFB1  F009         	goto	u1721
   701   00135E  EFB3  F009         	goto	u1720
   702   001362                     u1721:
   703   001362  EFB5  F009         	goto	l27
   704   001366                     u1720:
   705   001366                     l2026:
   706                           
   707                           ;main.c: 30:             control_flag=1;
   708   001366  0E01               	movlw	1
   709   001368  6E54               	movwf	_control_flag^0,c
   710   00136A                     l27:
   711                           
   712                           ;main.c: 32:         if(control_flag == 0)
   713   00136A  5054               	movf	_control_flag^0,w,c
   714   00136C  A4D8               	btfss	status,2,c
   715   00136E  EFBB  F009         	goto	u1731
   716   001372  EFBD  F009         	goto	u1730
   717   001376                     u1731:
   718   001376  EFC1  F009         	goto	l2030
   719   00137A                     u1730:
   720   00137A                     
   721                           ;main.c: 33:             display_default_screen();
   722   00137A  EC12  F00B         	call	_display_default_screen	;wreg free
   723   00137E  EF94  F009         	goto	l2018
   724   001382                     l2030:
   725   001382  0454               	decf	_control_flag^0,w,c
   726   001384  A4D8               	btfss	status,2,c
   727   001386  EFC7  F009         	goto	u1741
   728   00138A  EFC9  F009         	goto	u1740
   729   00138E                     u1741:
   730   00138E  EFCD  F009         	goto	l2034
   731   001392                     u1740:
   732   001392                     
   733                           ;main.c: 35:             login_screen();
   734   001392  EC26  F005         	call	_login_screen	;wreg free
   735   001396  EF94  F009         	goto	l2018
   736   00139A                     l2034:
   737   00139A  0E02               	movlw	2
   738   00139C  1854               	xorwf	_control_flag^0,w,c
   739   00139E  A4D8               	btfss	status,2,c
   740   0013A0  EFD4  F009         	goto	u1751
   741   0013A4  EFD6  F009         	goto	u1750
   742   0013A8                     u1751:
   743   0013A8  EFDA  F009         	goto	l31
   744   0013AC                     u1750:
   745   0013AC                     
   746                           ;main.c: 37:             display_menu_screen();
   747   0013AC  EC01  F00B         	call	_display_menu_screen	;wreg free
   748   0013B0  EF94  F009         	goto	l2018
   749   0013B4                     l31:
   750   0013B4  EF94  F009         	goto	l2018
   751   0013B8  EF00  F000         	goto	start
   752   0013BC                     __end_of_main:
   753                           	callstack 0
   754                           
   755 ;; *************** function _login_screen *****************
   756 ;; Defined at:
   757 ;;		line 218 in file "car_black_box.c"
   758 ;; Parameters:    Size  Location     Type
   759 ;;		None
   760 ;; Auto vars:     Size  Location     Type
   761 ;;  i               4   20[COMRAM] unsigned long 
   762 ;;  one_min_coun    2    0        int 
   763 ;;  i               2   27[COMRAM] int 
   764 ;;  user_in         5   15[COMRAM] unsigned char [5]
   765 ;;  password        4   11[COMRAM] unsigned char [4]
   766 ;;  count           2   36[COMRAM] unsigned int 
   767 ;;  check           2   32[COMRAM] unsigned int 
   768 ;;  success         2   29[COMRAM] unsigned int 
   769 ;;  wait            2   24[COMRAM] unsigned int 
   770 ;;  pass_key        1   35[COMRAM] unsigned char 
   771 ;;  chance          1   34[COMRAM] unsigned char 
   772 ;;  cursor_flag     1   31[COMRAM] unsigned char 
   773 ;;  enter           1   26[COMRAM] unsigned char 
   774 ;; Return value:  Size  Location     Type
   775 ;;                  1    wreg      void 
   776 ;; Registers used:
   777 ;;		wreg, fsr1l, fsr1h, fsr2l, fsr2h, status,2, status,0, tblptrl, tblptrh, tblptru, cstack
   778 ;; Tracked objects:
   779 ;;		On entry : 0/0
   780 ;;		On exit  : 0/0
   781 ;;		Unchanged: 0/0
   782 ;; Data sizes:     COMRAM   BANK0   BANK1   BANK2   BANK3   BANK4   BANK5
   783 ;;      Params:         0       0       0       0       0       0       0
   784 ;;      Locals:        27       0       0       0       0       0       0
   785 ;;      Temps:          2       0       0       0       0       0       0
   786 ;;      Totals:        29       0       0       0       0       0       0
   787 ;;Total ram usage:       29 bytes
   788 ;; Hardware stack levels used: 1
   789 ;; Hardware stack levels required when called: 2
   790 ;; This function calls:
   791 ;;		_clcd_print
   792 ;;		_clcd_putch
   793 ;;		_clcd_write
   794 ;;		_read_matrix_keypad
   795 ;; This function is called by:
   796 ;;		_main
   797 ;; This function uses a non-reentrant model
   798 ;;
   799                           
   800                           	psect	text1
   801   000A4C                     __ptext1:
   802                           	callstack 0
   803   000A4C                     _login_screen:
   804                           	callstack 28
   805   000A4C                     
   806                           ;car_black_box.c: 220:     unsigned int success =0;
   807   000A4C  0E00               	movlw	0
   808   000A4E  6E1F               	movwf	(login_screen@success+1)^0,c
   809   000A50  0E00               	movlw	0
   810   000A52  6E1E               	movwf	login_screen@success^0,c
   811                           
   812                           ;car_black_box.c: 221:     unsigned char enter =0;
   813   000A54  0E00               	movlw	0
   814   000A56  6E1B               	movwf	login_screen@enter^0,c
   815   000A58                     
   816                           ;car_black_box.c: 223:     unsigned char password[4] = "1010";
   817   000A58  C04D  F00C         	movff	login_screen@F10491,login_screen@password
   818   000A5C  C04E  F00D         	movff	login_screen@F10491+1,login_screen@password+1
   819   000A60  C04F  F00E         	movff	login_screen@F10491+2,login_screen@password+2
   820   000A64  C050  F00F         	movff	login_screen@F10491+3,login_screen@password+3
   821                           
   822                           ;car_black_box.c: 224:     unsigned int count =0;
   823   000A68  0E00               	movlw	0
   824   000A6A  6E26               	movwf	(login_screen@count+1)^0,c
   825   000A6C  0E00               	movlw	0
   826   000A6E  6E25               	movwf	login_screen@count^0,c
   827                           
   828                           ;car_black_box.c: 225:     unsigned char user_in[5];;car_black_box.c: 226:     user_in[4
      +                          ]='\0';
   829   000A70  0E00               	movlw	0
   830   000A72  6E14               	movwf	(login_screen@user_in+4)^0,c
   831                           
   832                           ;car_black_box.c: 227:     unsigned int check =0;
   833   000A74  0E00               	movlw	0
   834   000A76  6E22               	movwf	(login_screen@check+1)^0,c
   835   000A78  0E00               	movlw	0
   836   000A7A  6E21               	movwf	login_screen@check^0,c
   837                           
   838                           ;car_black_box.c: 228:     unsigned char cursor_flag=0;
   839   000A7C  0E00               	movlw	0
   840   000A7E  6E20               	movwf	login_screen@cursor_flag^0,c
   841                           
   842                           ;car_black_box.c: 229:     unsigned char chance=0;
   843   000A80  0E00               	movlw	0
   844   000A82  6E23               	movwf	login_screen@chance^0,c
   845                           
   846                           ;car_black_box.c: 230:     unsigned char pass_key;;car_black_box.c: 231:     unsigned in
      +                          t wait =0;
   847   000A84  0E00               	movlw	0
   848   000A86  6E1A               	movwf	(login_screen@wait+1)^0,c
   849   000A88  0E00               	movlw	0
   850   000A8A  6E19               	movwf	login_screen@wait^0,c
   851                           
   852                           ;car_black_box.c: 232:     while(success != 1){
   853   000A8C  EF91  F006         	goto	l2010
   854   000A90                     l1914:
   855                           
   856                           ;car_black_box.c: 234:     {;car_black_box.c: 235:         if(success == 0)
   857   000A90  501E               	movf	login_screen@success^0,w,c
   858   000A92  101F               	iorwf	(login_screen@success+1)^0,w,c
   859   000A94  A4D8               	btfss	status,2,c
   860   000A96  EF4F  F005         	goto	u1541
   861   000A9A  EF51  F005         	goto	u1540
   862   000A9E                     u1541:
   863   000A9E  EF59  F005         	goto	l1918
   864   000AA2                     u1540:
   865   000AA2                     
   866                           ;car_black_box.c: 236:         {;car_black_box.c: 237:             clcd_print(" ENTER PA
      +                          SSWORD ",(0x80 + (0)));
   867   000AA2  0E45               	movlw	low STR_18
   868   000AA4  6E03               	movwf	clcd_print@data^0,c
   869   000AA6  0E06               	movlw	high STR_18
   870   000AA8  6E04               	movwf	(clcd_print@data+1)^0,c
   871   000AAA  0E80               	movlw	128
   872   000AAC  6E05               	movwf	clcd_print@addr^0,c
   873   000AAE  ECAA  F00A         	call	_clcd_print	;wreg free
   874   000AB2                     l1918:
   875                           
   876                           ;car_black_box.c: 239:         pass_key = read_matrix_keypad(1);
   877   000AB2  0E01               	movlw	1
   878   000AB4  ECDE  F009         	call	_read_matrix_keypad
   879   000AB8  6E24               	movwf	login_screen@pass_key^0,c
   880   000ABA                     
   881                           ;car_black_box.c: 240:         if(enter ==0)
   882   000ABA  501B               	movf	login_screen@enter^0,w,c
   883   000ABC  A4D8               	btfss	status,2,c
   884   000ABE  EF63  F005         	goto	u1551
   885   000AC2  EF65  F005         	goto	u1550
   886   000AC6                     u1551:
   887   000AC6  EF8E  F005         	goto	l1932
   888   000ACA                     u1550:
   889   000ACA                     
   890                           ;car_black_box.c: 241:         {;car_black_box.c: 242:             if(wait++ == 800)
   891   000ACA  4A19               	infsnz	login_screen@wait^0,f,c
   892   000ACC  2A1A               	incf	(login_screen@wait+1)^0,f,c
   893   000ACE  0E21               	movlw	33
   894   000AD0  1819               	xorwf	login_screen@wait^0,w,c
   895   000AD2  E107               	bnz	u1561
   896   000AD4  0E03               	movlw	3
   897   000AD6  181A               	xorwf	(login_screen@wait+1)^0,w,c
   898   000AD8  A4D8               	btfss	status,2,c
   899   000ADA  EF71  F005         	goto	u1561
   900   000ADE  EF73  F005         	goto	u1560
   901   000AE2                     u1561:
   902   000AE2  EF8E  F005         	goto	l1932
   903   000AE6                     u1560:
   904   000AE6                     
   905                           ;car_black_box.c: 243:             {;car_black_box.c: 244:                 wait =0;
   906   000AE6  0E00               	movlw	0
   907   000AE8  6E1A               	movwf	(login_screen@wait+1)^0,c
   908   000AEA  0E00               	movlw	0
   909   000AEC  6E19               	movwf	login_screen@wait^0,c
   910                           
   911                           ;car_black_box.c: 245:                 if(cursor_flag ==0)
   912   000AEE  5020               	movf	login_screen@cursor_flag^0,w,c
   913   000AF0  A4D8               	btfss	status,2,c
   914   000AF2  EF7D  F005         	goto	u1571
   915   000AF6  EF7F  F005         	goto	u1570
   916   000AFA                     u1571:
   917   000AFA  EF87  F005         	goto	l1928
   918   000AFE                     u1570:
   919   000AFE                     
   920                           ;car_black_box.c: 246:                 {;car_black_box.c: 247:                     clcd_
      +                          putch('_',(0xC0 + (4+count)));
   921   000AFE  5025               	movf	login_screen@count^0,w,c
   922   000B00  0FC4               	addlw	196
   923   000B02  6E08               	movwf	clcd_putch@addr^0,c
   924   000B04  0E5F               	movlw	95
   925   000B06  EC1F  F00B         	call	_clcd_putch
   926                           
   927                           ;car_black_box.c: 248:                 }
   928   000B0A  EF8D  F005         	goto	l1930
   929   000B0E                     l1928:
   930                           
   931                           ;car_black_box.c: 250:                 {;car_black_box.c: 251:                     clcd_
      +                          putch(' ',(0xC0 + (4+count)));
   932   000B0E  5025               	movf	login_screen@count^0,w,c
   933   000B10  0FC4               	addlw	196
   934   000B12  6E08               	movwf	clcd_putch@addr^0,c
   935   000B14  0E20               	movlw	32
   936   000B16  EC1F  F00B         	call	_clcd_putch
   937   000B1A                     l1930:
   938                           
   939                           ;car_black_box.c: 253:                 cursor_flag =~cursor_flag;
   940   000B1A  1E20               	comf	login_screen@cursor_flag^0,f,c
   941   000B1C                     l1932:
   942                           
   943                           ;car_black_box.c: 256:         if(pass_key ==11 || pass_key ==12)
   944   000B1C  0E0B               	movlw	11
   945   000B1E  1824               	xorwf	login_screen@pass_key^0,w,c
   946   000B20  B4D8               	btfsc	status,2,c
   947   000B22  EF95  F005         	goto	u1581
   948   000B26  EF97  F005         	goto	u1580
   949   000B2A                     u1581:
   950   000B2A  EFA0  F005         	goto	l1936
   951   000B2E                     u1580:
   952   000B2E  0E0C               	movlw	12
   953   000B30  1824               	xorwf	login_screen@pass_key^0,w,c
   954   000B32  A4D8               	btfss	status,2,c
   955   000B34  EF9E  F005         	goto	u1591
   956   000B38  EFA0  F005         	goto	u1590
   957   000B3C                     u1591:
   958   000B3C  EFCA  F005         	goto	l1946
   959   000B40                     u1590:
   960   000B40                     l1936:
   961                           
   962                           ;car_black_box.c: 257:         {;car_black_box.c: 258:             clcd_putch('*',(0xC0 
      +                          + (4+count)));
   963   000B40  5025               	movf	login_screen@count^0,w,c
   964   000B42  0FC4               	addlw	196
   965   000B44  6E08               	movwf	clcd_putch@addr^0,c
   966   000B46  0E2A               	movlw	42
   967   000B48  EC1F  F00B         	call	_clcd_putch
   968   000B4C                     
   969                           ;car_black_box.c: 259:             user_in[count] = pass_key+37;
   970   000B4C  0E10               	movlw	low login_screen@user_in
   971   000B4E  2425               	addwf	login_screen@count^0,w,c
   972   000B50  6ED9               	movwf	fsr2l,c
   973   000B52  0E00               	movlw	high login_screen@user_in
   974   000B54  2026               	addwfc	(login_screen@count+1)^0,w,c
   975   000B56  6EDA               	movwf	fsr2h,c
   976   000B58  5024               	movf	login_screen@pass_key^0,w,c
   977   000B5A  0F25               	addlw	37
   978   000B5C  6EDF               	movwf	indf2,c
   979   000B5E                     
   980                           ;car_black_box.c: 260:             if(password[count] != user_in[count])
   981   000B5E  0E10               	movlw	low login_screen@user_in
   982   000B60  2425               	addwf	login_screen@count^0,w,c
   983   000B62  6ED9               	movwf	fsr2l,c
   984   000B64  0E00               	movlw	high login_screen@user_in
   985   000B66  2026               	addwfc	(login_screen@count+1)^0,w,c
   986   000B68  6EDA               	movwf	fsr2h,c
   987   000B6A  0E0C               	movlw	low login_screen@password
   988   000B6C  2425               	addwf	login_screen@count^0,w,c
   989   000B6E  6EE1               	movwf	fsr1l,c
   990   000B70  0E00               	movlw	high login_screen@password
   991   000B72  2026               	addwfc	(login_screen@count+1)^0,w,c
   992   000B74  6EE2               	movwf	fsr1h,c
   993   000B76  50DE               	movf	postinc2,w,c
   994   000B78  18E6               	xorwf	postinc1,w,c
   995   000B7A  B4D8               	btfsc	status,2,c
   996   000B7C  EFC2  F005         	goto	u1601
   997   000B80  EFC4  F005         	goto	u1600
   998   000B84                     u1601:
   999   000B84  EFC8  F005         	goto	l1944
  1000   000B88                     u1600:
  1001   000B88                     
  1002                           ;car_black_box.c: 261:             {;car_black_box.c: 262:                 check=1;
  1003   000B88  0E00               	movlw	0
  1004   000B8A  6E22               	movwf	(login_screen@check+1)^0,c
  1005   000B8C  0E01               	movlw	1
  1006   000B8E  6E21               	movwf	login_screen@check^0,c
  1007   000B90                     l1944:
  1008                           
  1009                           ;car_black_box.c: 264:             count++;
  1010   000B90  4A25               	infsnz	login_screen@count^0,f,c
  1011   000B92  2A26               	incf	(login_screen@count+1)^0,f,c
  1012   000B94                     l1946:
  1013                           
  1014                           ;car_black_box.c: 266:         if(check ==0 && count == 4)
  1015   000B94  5021               	movf	login_screen@check^0,w,c
  1016   000B96  1022               	iorwf	(login_screen@check+1)^0,w,c
  1017   000B98  A4D8               	btfss	status,2,c
  1018   000B9A  EFD1  F005         	goto	u1611
  1019   000B9E  EFD3  F005         	goto	u1610
  1020   000BA2                     u1611:
  1021   000BA2  EF08  F006         	goto	l1970
  1022   000BA6                     u1610:
  1023   000BA6  0E04               	movlw	4
  1024   000BA8  1825               	xorwf	login_screen@count^0,w,c
  1025   000BAA  1026               	iorwf	(login_screen@count+1)^0,w,c
  1026   000BAC  A4D8               	btfss	status,2,c
  1027   000BAE  EFDB  F005         	goto	u1621
  1028   000BB2  EFDD  F005         	goto	u1620
  1029   000BB6                     u1621:
  1030   000BB6  EF08  F006         	goto	l1970
  1031   000BBA                     u1620:
  1032   000BBA                     
  1033                           ;car_black_box.c: 267:         {;car_black_box.c: 268:             enter =1;
  1034   000BBA  0E01               	movlw	1
  1035   000BBC  6E1B               	movwf	login_screen@enter^0,c
  1036                           
  1037                           ;car_black_box.c: 269:             success =1;
  1038   000BBE  0E00               	movlw	0
  1039   000BC0  6E1F               	movwf	(login_screen@success+1)^0,c
  1040   000BC2  0E01               	movlw	1
  1041   000BC4  6E1E               	movwf	login_screen@success^0,c
  1042   000BC6                     
  1043                           ;car_black_box.c: 270:             clcd_print("Correct Password",(0x80 + (0)));
  1044   000BC6  0E78               	movlw	low STR_19
  1045   000BC8  6E03               	movwf	clcd_print@data^0,c
  1046   000BCA  0E06               	movlw	high STR_19
  1047   000BCC  6E04               	movwf	(clcd_print@data+1)^0,c
  1048   000BCE  0E80               	movlw	128
  1049   000BD0  6E05               	movwf	clcd_print@addr^0,c
  1050   000BD2  ECAA  F00A         	call	_clcd_print	;wreg free
  1051   000BD6                     
  1052                           ;car_black_box.c: 271:             for(int i=0;i<10000;i++);
  1053   000BD6  0E00               	movlw	0
  1054   000BD8  6E1D               	movwf	(login_screen@i+1)^0,c
  1055   000BDA  0E00               	movlw	0
  1056   000BDC  6E1C               	movwf	login_screen@i^0,c
  1057   000BDE                     l1960:
  1058   000BDE  4A1C               	infsnz	login_screen@i^0,f,c
  1059   000BE0  2A1D               	incf	(login_screen@i+1)^0,f,c
  1060   000BE2  BE1D               	btfsc	(login_screen@i+1)^0,7,c
  1061   000BE4  EFFD  F005         	goto	u1631
  1062   000BE8  0E10               	movlw	16
  1063   000BEA  5C1C               	subwf	login_screen@i^0,w,c
  1064   000BEC  0E27               	movlw	39
  1065   000BEE  581D               	subwfb	(login_screen@i+1)^0,w,c
  1066   000BF0  A0D8               	btfss	status,0,c
  1067   000BF2  EFFD  F005         	goto	u1631
  1068   000BF6  EFFF  F005         	goto	u1630
  1069   000BFA                     u1631:
  1070   000BFA  EFEF  F005         	goto	l1960
  1071   000BFE                     u1630:
  1072   000BFE                     
  1073                           ;car_black_box.c: 272:             clcd_write(0x01, 0);
  1074   000BFE  0E00               	movlw	0
  1075   000C00  6E01               	movwf	clcd_write@control_bit^0,c
  1076   000C02  0E01               	movlw	1
  1077   000C04  ECCC  F00A         	call	_clcd_write
  1078   000C08                     
  1079                           ;car_black_box.c: 273:             control_flag=2;
  1080   000C08  0E02               	movlw	2
  1081   000C0A  6E54               	movwf	_control_flag^0,c
  1082                           
  1083                           ;car_black_box.c: 274:             break;
  1084   000C0C  EF91  F006         	goto	l2010
  1085   000C10                     l1970:
  1086   000C10  0421               	decf	login_screen@check^0,w,c
  1087   000C12  1022               	iorwf	(login_screen@check+1)^0,w,c
  1088   000C14  A4D8               	btfss	status,2,c
  1089   000C16  EF0F  F006         	goto	u1641
  1090   000C1A  EF11  F006         	goto	u1640
  1091   000C1E                     u1641:
  1092   000C1E  EF86  F006         	goto	l2008
  1093   000C22                     u1640:
  1094   000C22  0E04               	movlw	4
  1095   000C24  1825               	xorwf	login_screen@count^0,w,c
  1096   000C26  1026               	iorwf	(login_screen@count+1)^0,w,c
  1097   000C28  A4D8               	btfss	status,2,c
  1098   000C2A  EF19  F006         	goto	u1651
  1099   000C2E  EF1B  F006         	goto	u1650
  1100   000C32                     u1651:
  1101   000C32  EF86  F006         	goto	l2008
  1102   000C36                     u1650:
  1103   000C36                     
  1104                           ;car_black_box.c: 279:         {;car_black_box.c: 280:             if(chance < 3)
  1105   000C36  0E03               	movlw	3
  1106   000C38  6023               	cpfslt	login_screen@chance^0,c
  1107   000C3A  EF21  F006         	goto	u1661
  1108   000C3E  EF23  F006         	goto	u1660
  1109   000C42                     u1661:
  1110   000C42  EF6A  F006         	goto	l1996
  1111   000C46                     u1660:
  1112   000C46                     
  1113                           ;car_black_box.c: 281:             {;car_black_box.c: 282:                 clcd_print(" 
      +                          WRONG_PASSWORD ",(0x80 + (0)));
  1114   000C46  0E56               	movlw	low STR_20
  1115   000C48  6E03               	movwf	clcd_print@data^0,c
  1116   000C4A  0E06               	movlw	high STR_20
  1117   000C4C  6E04               	movwf	(clcd_print@data+1)^0,c
  1118   000C4E  0E80               	movlw	128
  1119   000C50  6E05               	movwf	clcd_print@addr^0,c
  1120   000C52  ECAA  F00A         	call	_clcd_print	;wreg free
  1121                           
  1122                           ;car_black_box.c: 283:                 clcd_print("  Attempts left ",(0xC0 + (0)));
  1123   000C56  0E67               	movlw	low STR_21
  1124   000C58  6E03               	movwf	clcd_print@data^0,c
  1125   000C5A  0E06               	movlw	high STR_21
  1126   000C5C  6E04               	movwf	(clcd_print@data+1)^0,c
  1127   000C5E  0EC0               	movlw	192
  1128   000C60  6E05               	movwf	clcd_print@addr^0,c
  1129   000C62  ECAA  F00A         	call	_clcd_print	;wreg free
  1130   000C66                     
  1131                           ;car_black_box.c: 284:                 clcd_putch(51-chance,(0xC0 + (0)));
  1132   000C66  0EC0               	movlw	192
  1133   000C68  6E08               	movwf	clcd_putch@addr^0,c
  1134   000C6A  5023               	movf	login_screen@chance^0,w,c
  1135   000C6C  0833               	sublw	51
  1136   000C6E  EC1F  F00B         	call	_clcd_putch
  1137   000C72                     
  1138                           ;car_black_box.c: 285:                 enter =0;
  1139   000C72  0E00               	movlw	0
  1140   000C74  6E1B               	movwf	login_screen@enter^0,c
  1141   000C76                     
  1142                           ;car_black_box.c: 286:                 count=0;
  1143   000C76  0E00               	movlw	0
  1144   000C78  6E26               	movwf	(login_screen@count+1)^0,c
  1145   000C7A  0E00               	movlw	0
  1146   000C7C  6E25               	movwf	login_screen@count^0,c
  1147   000C7E                     
  1148                           ;car_black_box.c: 287:                 success =0;
  1149   000C7E  0E00               	movlw	0
  1150   000C80  6E1F               	movwf	(login_screen@success+1)^0,c
  1151   000C82  0E00               	movlw	0
  1152   000C84  6E1E               	movwf	login_screen@success^0,c
  1153   000C86                     
  1154                           ;car_black_box.c: 288:                 check=0;
  1155   000C86  0E00               	movlw	0
  1156   000C88  6E22               	movwf	(login_screen@check+1)^0,c
  1157   000C8A  0E00               	movlw	0
  1158   000C8C  6E21               	movwf	login_screen@check^0,c
  1159   000C8E                     
  1160                           ;car_black_box.c: 289:                 chance++;
  1161   000C8E  2A23               	incf	login_screen@chance^0,f,c
  1162   000C90                     
  1163                           ;car_black_box.c: 290:                 for(unsigned long int i=100000;i--;);
  1164   000C90  0EA0               	movlw	160
  1165   000C92  6E15               	movwf	login_screen@i_194^0,c
  1166   000C94  0E86               	movlw	134
  1167   000C96  6E16               	movwf	(login_screen@i_194+1)^0,c
  1168   000C98  0E01               	movlw	1
  1169   000C9A  6E17               	movwf	(login_screen@i_194+2)^0,c
  1170   000C9C  0E00               	movlw	0
  1171   000C9E  6E18               	movwf	(login_screen@i_194+3)^0,c
  1172   000CA0                     l1992:
  1173   000CA0  0615               	decf	login_screen@i_194^0,f,c
  1174   000CA2  0E00               	movlw	0
  1175   000CA4  5A16               	subwfb	(login_screen@i_194+1)^0,f,c
  1176   000CA6  5A17               	subwfb	(login_screen@i_194+2)^0,f,c
  1177   000CA8  5A18               	subwfb	(login_screen@i_194+3)^0,f,c
  1178   000CAA  2815               	incf	login_screen@i_194^0,w,c
  1179   000CAC  E10A               	bnz	u1671
  1180   000CAE  2816               	incf	(login_screen@i_194+1)^0,w,c
  1181   000CB0  E108               	bnz	u1671
  1182   000CB2  2817               	incf	(login_screen@i_194+2)^0,w,c
  1183   000CB4  E106               	bnz	u1671
  1184   000CB6  2818               	incf	(login_screen@i_194+3)^0,w,c
  1185   000CB8  A4D8               	btfss	status,2,c
  1186   000CBA  EF61  F006         	goto	u1671
  1187   000CBE  EF63  F006         	goto	u1670
  1188   000CC2                     u1671:
  1189   000CC2  EF50  F006         	goto	l1992
  1190   000CC6                     u1670:
  1191   000CC6                     
  1192                           ;car_black_box.c: 291:                     clcd_write(0x01, 0);
  1193   000CC6  0E00               	movlw	0
  1194   000CC8  6E01               	movwf	clcd_write@control_bit^0,c
  1195   000CCA  0E01               	movlw	1
  1196   000CCC  ECCC  F00A         	call	_clcd_write
  1197                           
  1198                           ;car_black_box.c: 292:             }
  1199   000CD0  EF86  F006         	goto	l2008
  1200   000CD4                     l1996:
  1201                           
  1202                           ;car_black_box.c: 294:             {;car_black_box.c: 295:                 clcd_print(" 
      +                             WAIT_FOR    ",(0x80 + (0)));
  1203   000CD4  0E34               	movlw	low STR_22
  1204   000CD6  6E03               	movwf	clcd_print@data^0,c
  1205   000CD8  0E06               	movlw	high STR_22
  1206   000CDA  6E04               	movwf	(clcd_print@data+1)^0,c
  1207   000CDC  0E80               	movlw	128
  1208   000CDE  6E05               	movwf	clcd_print@addr^0,c
  1209   000CE0  ECAA  F00A         	call	_clcd_print	;wreg free
  1210                           
  1211                           ;car_black_box.c: 296:                 clcd_print("                ",(0xC0 + (0)));
  1212   000CE4  0E01               	movlw	low STR_23
  1213   000CE6  6E03               	movwf	clcd_print@data^0,c
  1214   000CE8  0E06               	movlw	high STR_23
  1215   000CEA  6E04               	movwf	(clcd_print@data+1)^0,c
  1216   000CEC  0EC0               	movlw	192
  1217   000CEE  6E05               	movwf	clcd_print@addr^0,c
  1218   000CF0  ECAA  F00A         	call	_clcd_print	;wreg free
  1219   000CF4                     
  1220                           ;car_black_box.c: 299:                 enter =0;
  1221   000CF4  0E00               	movlw	0
  1222   000CF6  6E1B               	movwf	login_screen@enter^0,c
  1223   000CF8                     
  1224                           ;car_black_box.c: 300:                 count =0;
  1225   000CF8  0E00               	movlw	0
  1226   000CFA  6E26               	movwf	(login_screen@count+1)^0,c
  1227   000CFC  0E00               	movlw	0
  1228   000CFE  6E25               	movwf	login_screen@count^0,c
  1229   000D00                     
  1230                           ;car_black_box.c: 301:                 chance =0;
  1231   000D00  0E00               	movlw	0
  1232   000D02  6E23               	movwf	login_screen@chance^0,c
  1233   000D04                     
  1234                           ;car_black_box.c: 302:                 check=0;
  1235   000D04  0E00               	movlw	0
  1236   000D06  6E22               	movwf	(login_screen@check+1)^0,c
  1237   000D08  0E00               	movlw	0
  1238   000D0A  6E21               	movwf	login_screen@check^0,c
  1239   000D0C                     l2008:
  1240                           
  1241                           ;car_black_box.c: 233:     while(count < 5)
  1242   000D0C  5026               	movf	(login_screen@count+1)^0,w,c
  1243   000D0E  E109               	bnz	u1680
  1244   000D10  0E05               	movlw	5
  1245   000D12  5C25               	subwf	login_screen@count^0,w,c
  1246   000D14  A0D8               	btfss	status,0,c
  1247   000D16  EF8F  F006         	goto	u1681
  1248   000D1A  EF91  F006         	goto	u1680
  1249   000D1E                     u1681:
  1250   000D1E  EF48  F005         	goto	l1914
  1251   000D22                     u1680:
  1252   000D22                     l2010:
  1253                           
  1254                           ;car_black_box.c: 232:     while(success != 1){
  1255   000D22  041E               	decf	login_screen@success^0,w,c
  1256   000D24  101F               	iorwf	(login_screen@success+1)^0,w,c
  1257   000D26  A4D8               	btfss	status,2,c
  1258   000D28  EF98  F006         	goto	u1691
  1259   000D2C  EF9A  F006         	goto	u1690
  1260   000D30                     u1691:
  1261   000D30  EF86  F006         	goto	l2008
  1262   000D34                     u1690:
  1263   000D34  0012               	return		;funcret
  1264   000D36                     __end_of_login_screen:
  1265                           	callstack 0
  1266                           
  1267 ;; *************** function _init_configure *****************
  1268 ;; Defined at:
  1269 ;;		line 10 in file "main.c"
  1270 ;; Parameters:    Size  Location     Type
  1271 ;;		None
  1272 ;; Auto vars:     Size  Location     Type
  1273 ;;		None
  1274 ;; Return value:  Size  Location     Type
  1275 ;;                  1    wreg      void 
  1276 ;; Registers used:
  1277 ;;		wreg, status,2, status,0, cstack
  1278 ;; Tracked objects:
  1279 ;;		On entry : 0/0
  1280 ;;		On exit  : 0/0
  1281 ;;		Unchanged: 0/0
  1282 ;; Data sizes:     COMRAM   BANK0   BANK1   BANK2   BANK3   BANK4   BANK5
  1283 ;;      Params:         0       0       0       0       0       0       0
  1284 ;;      Locals:         0       0       0       0       0       0       0
  1285 ;;      Temps:          0       0       0       0       0       0       0
  1286 ;;      Totals:         0       0       0       0       0       0       0
  1287 ;;Total ram usage:        0 bytes
  1288 ;; Hardware stack levels used: 1
  1289 ;; Hardware stack levels required when called: 2
  1290 ;; This function calls:
  1291 ;;		_init_adc
  1292 ;;		_init_clcd
  1293 ;;		_init_matrix_keypad
  1294 ;; This function is called by:
  1295 ;;		_main
  1296 ;; This function uses a non-reentrant model
  1297 ;;
  1298                           
  1299                           	psect	text2
  1300   001684                     __ptext2:
  1301                           	callstack 0
  1302   001684                     _init_configure:
  1303                           	callstack 28
  1304   001684                     
  1305                           ;main.c: 13:     init_clcd();
  1306   001684  ECED  F008         	call	_init_clcd	;wreg free
  1307   001688                     
  1308                           ;main.c: 15:     init_matrix_keypad();
  1309   001688  EC49  F00B         	call	_init_matrix_keypad	;wreg free
  1310   00168C                     
  1311                           ;main.c: 17:     init_adc();
  1312   00168C  EC37  F00B         	call	_init_adc	;wreg free
  1313   001690  0012               	return		;funcret
  1314   001692                     __end_of_init_configure:
  1315                           	callstack 0
  1316                           
  1317 ;; *************** function _init_matrix_keypad *****************
  1318 ;; Defined at:
  1319 ;;		line 182 in file "car_black_box.c"
  1320 ;; Parameters:    Size  Location     Type
  1321 ;;		None
  1322 ;; Auto vars:     Size  Location     Type
  1323 ;;		None
  1324 ;; Return value:  Size  Location     Type
  1325 ;;                  1    wreg      void 
  1326 ;; Registers used:
  1327 ;;		wreg, status,2
  1328 ;; Tracked objects:
  1329 ;;		On entry : 0/0
  1330 ;;		On exit  : 0/0
  1331 ;;		Unchanged: 0/0
  1332 ;; Data sizes:     COMRAM   BANK0   BANK1   BANK2   BANK3   BANK4   BANK5
  1333 ;;      Params:         0       0       0       0       0       0       0
  1334 ;;      Locals:         0       0       0       0       0       0       0
  1335 ;;      Temps:          0       0       0       0       0       0       0
  1336 ;;      Totals:         0       0       0       0       0       0       0
  1337 ;;Total ram usage:        0 bytes
  1338 ;; Hardware stack levels used: 1
  1339 ;; This function calls:
  1340 ;;		Nothing
  1341 ;; This function is called by:
  1342 ;;		_init_configure
  1343 ;; This function uses a non-reentrant model
  1344 ;;
  1345                           
  1346                           	psect	text3
  1347   001692                     __ptext3:
  1348                           	callstack 0
  1349   001692                     _init_matrix_keypad:
  1350                           	callstack 29
  1351   001692                     
  1352                           ;car_black_box.c: 184:     TRISB = 0x1E;
  1353   001692  0E1E               	movlw	30
  1354   001694  6E93               	movwf	147,c	;volatile
  1355   001696                     
  1356                           ;car_black_box.c: 185:     RBPU=0;
  1357   001696  9EF1               	bcf	4081,7,c	;volatile
  1358   001698  0012               	return		;funcret
  1359   00169A                     __end_of_init_matrix_keypad:
  1360                           	callstack 0
  1361                           
  1362 ;; *************** function _init_clcd *****************
  1363 ;; Defined at:
  1364 ;;		line 84 in file "car_black_box.c"
  1365 ;; Parameters:    Size  Location     Type
  1366 ;;		None
  1367 ;; Auto vars:     Size  Location     Type
  1368 ;;		None
  1369 ;; Return value:  Size  Location     Type
  1370 ;;                  1    wreg      void 
  1371 ;; Registers used:
  1372 ;;		wreg, status,2, status,0, cstack
  1373 ;; Tracked objects:
  1374 ;;		On entry : 0/0
  1375 ;;		On exit  : 0/0
  1376 ;;		Unchanged: 0/0
  1377 ;; Data sizes:     COMRAM   BANK0   BANK1   BANK2   BANK3   BANK4   BANK5
  1378 ;;      Params:         0       0       0       0       0       0       0
  1379 ;;      Locals:         0       0       0       0       0       0       0
  1380 ;;      Temps:          2       0       0       0       0       0       0
  1381 ;;      Totals:         2       0       0       0       0       0       0
  1382 ;;Total ram usage:        2 bytes
  1383 ;; Hardware stack levels used: 1
  1384 ;; Hardware stack levels required when called: 1
  1385 ;; This function calls:
  1386 ;;		_clcd_write
  1387 ;; This function is called by:
  1388 ;;		_init_configure
  1389 ;; This function uses a non-reentrant model
  1390 ;;
  1391                           
  1392                           	psect	text4
  1393   0011DA                     __ptext4:
  1394                           	callstack 0
  1395   0011DA                     _init_clcd:
  1396                           	callstack 28
  1397   0011DA                     
  1398                           ;car_black_box.c: 87:  TRISD = 0x00;
  1399   0011DA  0E00               	movlw	0
  1400   0011DC  6E95               	movwf	149,c	;volatile
  1401   0011DE                     
  1402                           ;car_black_box.c: 89:  TRISC = TRISC & 0xF8;
  1403   0011DE  5094               	movf	148,w,c	;volatile
  1404   0011E0  0BF8               	andlw	248
  1405   0011E2  6E94               	movwf	148,c	;volatile
  1406   0011E4                     
  1407                           ;car_black_box.c: 91:  RC0 = 0;
  1408   0011E4  9082               	bcf	3970,0,c	;volatile
  1409   0011E6                     
  1410                           ;car_black_box.c: 95:     _delay((unsigned long)((40)*(20000000/4000.0)));
  1411   0011E6  0E02               	movlw	2
  1412   0011E8  6E04               	movwf	(??_init_clcd+1)^0,c
  1413   0011EA  0E04               	movlw	4
  1414   0011EC  6E03               	movwf	??_init_clcd^0,c
  1415   0011EE  0EBA               	movlw	186
  1416   0011F0                     u1767:
  1417   0011F0  2EE8               	decfsz	wreg,f,c
  1418   0011F2  D7FE               	bra	u1767
  1419   0011F4  2E03               	decfsz	??_init_clcd^0,f,c
  1420   0011F6  D7FC               	bra	u1767
  1421   0011F8  2E04               	decfsz	(??_init_clcd+1)^0,f,c
  1422   0011FA  D7FA               	bra	u1767
  1423   0011FC  D000               	nop2	
  1424   0011FE                     
  1425                           ;car_black_box.c: 98:     clcd_write(0x33, 0 );
  1426   0011FE  0E00               	movlw	0
  1427   001200  6E01               	movwf	clcd_write@control_bit^0,c
  1428   001202  0E33               	movlw	51
  1429   001204  ECCC  F00A         	call	_clcd_write
  1430   001208                     
  1431                           ;car_black_box.c: 99:     _delay((unsigned long)((4100)*(20000000/4000000.0)));
  1432   001208  0E1B               	movlw	27
  1433   00120A  6E03               	movwf	??_init_clcd^0,c
  1434   00120C  0E9E               	movlw	158
  1435   00120E                     u1777:
  1436   00120E  2EE8               	decfsz	wreg,f,c
  1437   001210  D7FE               	bra	u1777
  1438   001212  2E03               	decfsz	??_init_clcd^0,f,c
  1439   001214  D7FC               	bra	u1777
  1440   001216  D000               	nop2	
  1441   001218                     
  1442                           ;car_black_box.c: 100:     clcd_write(0x33, 0 );
  1443   001218  0E00               	movlw	0
  1444   00121A  6E01               	movwf	clcd_write@control_bit^0,c
  1445   00121C  0E33               	movlw	51
  1446   00121E  ECCC  F00A         	call	_clcd_write
  1447   001222                     
  1448                           ;car_black_box.c: 101:     _delay((unsigned long)((100)*(20000000/4000000.0)));
  1449   001222  0EA6               	movlw	166
  1450   001224                     u1787:
  1451   001224  2EE8               	decfsz	wreg,f,c
  1452   001226  D7FE               	bra	u1787
  1453   001228  D000               	nop2	
  1454   00122A                     
  1455                           ;car_black_box.c: 102:     clcd_write(0x33, 0 );
  1456   00122A  0E00               	movlw	0
  1457   00122C  6E01               	movwf	clcd_write@control_bit^0,c
  1458   00122E  0E33               	movlw	51
  1459   001230  ECCC  F00A         	call	_clcd_write
  1460   001234                     
  1461                           ;car_black_box.c: 103:     _delay((unsigned long)((1)*(20000000/4000000.0)));
  1462   001234  D000               	nop2		;2 cycle nop
  1463   001236  D000               	nop2		;2 cycle nop
  1464   001238  F000               	nop	
  1465   00123A                     
  1466                           ;car_black_box.c: 105:     clcd_write(0x02, 0);
  1467   00123A  0E00               	movlw	0
  1468   00123C  6E01               	movwf	clcd_write@control_bit^0,c
  1469   00123E  0E02               	movlw	2
  1470   001240  ECCC  F00A         	call	_clcd_write
  1471   001244                     
  1472                           ;car_black_box.c: 106:     _delay((unsigned long)((100)*(20000000/4000000.0)));
  1473   001244  0EA6               	movlw	166
  1474   001246                     u1797:
  1475   001246  2EE8               	decfsz	wreg,f,c
  1476   001248  D7FE               	bra	u1797
  1477   00124A  D000               	nop2	
  1478   00124C                     
  1479                           ;car_black_box.c: 107:     clcd_write(0x38, 0);
  1480   00124C  0E00               	movlw	0
  1481   00124E  6E01               	movwf	clcd_write@control_bit^0,c
  1482   001250  0E38               	movlw	56
  1483   001252  ECCC  F00A         	call	_clcd_write
  1484   001256                     
  1485                           ;car_black_box.c: 108:     _delay((unsigned long)((100)*(20000000/4000000.0)));
  1486   001256  0EA6               	movlw	166
  1487   001258                     u1807:
  1488   001258  2EE8               	decfsz	wreg,f,c
  1489   00125A  D7FE               	bra	u1807
  1490   00125C  D000               	nop2	
  1491   00125E                     
  1492                           ;car_black_box.c: 109:     clcd_write(0x01, 0);
  1493   00125E  0E00               	movlw	0
  1494   001260  6E01               	movwf	clcd_write@control_bit^0,c
  1495   001262  0E01               	movlw	1
  1496   001264  ECCC  F00A         	call	_clcd_write
  1497   001268                     
  1498                           ;car_black_box.c: 110:     _delay((unsigned long)((500)*(20000000/4000000.0)));
  1499   001268  0E04               	movlw	4
  1500   00126A  6E03               	movwf	??_init_clcd^0,c
  1501   00126C  0E3E               	movlw	62
  1502   00126E                     u1817:
  1503   00126E  2EE8               	decfsz	wreg,f,c
  1504   001270  D7FE               	bra	u1817
  1505   001272  2E03               	decfsz	??_init_clcd^0,f,c
  1506   001274  D7FC               	bra	u1817
  1507   001276                     
  1508                           ;car_black_box.c: 111:     clcd_write(0x0C, 0);
  1509   001276  0E00               	movlw	0
  1510   001278  6E01               	movwf	clcd_write@control_bit^0,c
  1511   00127A  0E0C               	movlw	12
  1512   00127C  ECCC  F00A         	call	_clcd_write
  1513   001280                     
  1514                           ;car_black_box.c: 112:     _delay((unsigned long)((100)*(20000000/4000000.0)));
  1515   001280  0EA6               	movlw	166
  1516   001282                     u1827:
  1517   001282  2EE8               	decfsz	wreg,f,c
  1518   001284  D7FE               	bra	u1827
  1519   001286  D000               	nop2	
  1520   001288  0012               	return		;funcret
  1521   00128A                     __end_of_init_clcd:
  1522                           	callstack 0
  1523                           
  1524 ;; *************** function _init_adc *****************
  1525 ;; Defined at:
  1526 ;;		line 189 in file "car_black_box.c"
  1527 ;; Parameters:    Size  Location     Type
  1528 ;;		None
  1529 ;; Auto vars:     Size  Location     Type
  1530 ;;		None
  1531 ;; Return value:  Size  Location     Type
  1532 ;;                  1    wreg      void 
  1533 ;; Registers used:
  1534 ;;		None
  1535 ;; Tracked objects:
  1536 ;;		On entry : 0/0
  1537 ;;		On exit  : 0/0
  1538 ;;		Unchanged: 0/0
  1539 ;; Data sizes:     COMRAM   BANK0   BANK1   BANK2   BANK3   BANK4   BANK5
  1540 ;;      Params:         0       0       0       0       0       0       0
  1541 ;;      Locals:         0       0       0       0       0       0       0
  1542 ;;      Temps:          0       0       0       0       0       0       0
  1543 ;;      Totals:         0       0       0       0       0       0       0
  1544 ;;Total ram usage:        0 bytes
  1545 ;; Hardware stack levels used: 1
  1546 ;; This function calls:
  1547 ;;		Nothing
  1548 ;; This function is called by:
  1549 ;;		_init_configure
  1550 ;; This function uses a non-reentrant model
  1551 ;;
  1552                           
  1553                           	psect	text5
  1554   00166E                     __ptext5:
  1555                           	callstack 0
  1556   00166E                     _init_adc:
  1557                           	callstack 29
  1558   00166E                     
  1559                           ;car_black_box.c: 191:     ADON =1;
  1560   00166E  80C2               	bsf	4034,0,c	;volatile
  1561                           
  1562                           ;car_black_box.c: 192:     VCFG1=0;
  1563   001670  9AC1               	bcf	4033,5,c	;volatile
  1564                           
  1565                           ;car_black_box.c: 193:     VCFG0=0;
  1566   001672  98C1               	bcf	4033,4,c	;volatile
  1567                           
  1568                           ;car_black_box.c: 195:     PCFG3 =1;
  1569   001674  86C1               	bsf	4033,3,c	;volatile
  1570                           
  1571                           ;car_black_box.c: 196:     PCFG2=0;
  1572   001676  94C1               	bcf	4033,2,c	;volatile
  1573                           
  1574                           ;car_black_box.c: 197:     PCFG1=1;
  1575   001678  82C1               	bsf	4033,1,c	;volatile
  1576                           
  1577                           ;car_black_box.c: 198:     PCFG0=0;
  1578   00167A  90C1               	bcf	4033,0,c	;volatile
  1579                           
  1580                           ;car_black_box.c: 200:     ACQT2=1;
  1581   00167C  8AC0               	bsf	4032,5,c	;volatile
  1582                           
  1583                           ;car_black_box.c: 201:     ACQT1=0;
  1584   00167E  98C0               	bcf	4032,4,c	;volatile
  1585                           
  1586                           ;car_black_box.c: 202:     ACQT0=0;
  1587   001680  96C0               	bcf	4032,3,c	;volatile
  1588   001682  0012               	return		;funcret
  1589   001684                     __end_of_init_adc:
  1590                           	callstack 0
  1591                           
  1592 ;; *************** function _display_menu_screen *****************
  1593 ;; Defined at:
  1594 ;;		line 311 in file "car_black_box.c"
  1595 ;; Parameters:    Size  Location     Type
  1596 ;;		None
  1597 ;; Auto vars:     Size  Location     Type
  1598 ;;		None
  1599 ;; Return value:  Size  Location     Type
  1600 ;;                  1    wreg      void 
  1601 ;; Registers used:
  1602 ;;		wreg, status,2, status,0, tblptrl, tblptrh, tblptru, cstack
  1603 ;; Tracked objects:
  1604 ;;		On entry : 0/0
  1605 ;;		On exit  : 0/0
  1606 ;;		Unchanged: 0/0
  1607 ;; Data sizes:     COMRAM   BANK0   BANK1   BANK2   BANK3   BANK4   BANK5
  1608 ;;      Params:         0       0       0       0       0       0       0
  1609 ;;      Locals:         0       0       0       0       0       0       0
  1610 ;;      Temps:          0       0       0       0       0       0       0
  1611 ;;      Totals:         0       0       0       0       0       0       0
  1612 ;;Total ram usage:        0 bytes
  1613 ;; Hardware stack levels used: 1
  1614 ;; Hardware stack levels required when called: 2
  1615 ;; This function calls:
  1616 ;;		_clcd_print
  1617 ;; This function is called by:
  1618 ;;		_main
  1619 ;; This function uses a non-reentrant model
  1620 ;;
  1621                           
  1622                           	psect	text6
  1623   001602                     __ptext6:
  1624                           	callstack 0
  1625   001602                     _display_menu_screen:
  1626                           	callstack 28
  1627   001602                     
  1628                           ;car_black_box.c: 313:     clcd_print("    VIEW_LOG    ",(0x80 + (0)));
  1629   001602  0E23               	movlw	low STR_24
  1630   001604  6E03               	movwf	clcd_print@data^0,c
  1631   001606  0E06               	movlw	high STR_24
  1632   001608  6E04               	movwf	(clcd_print@data+1)^0,c
  1633   00160A  0E80               	movlw	128
  1634   00160C  6E05               	movwf	clcd_print@addr^0,c
  1635   00160E  ECAA  F00A         	call	_clcd_print	;wreg free
  1636                           
  1637                           ;car_black_box.c: 314:     clcd_print("     SET_LOG    ",(0xC0 + (0)));
  1638   001612  0E12               	movlw	low STR_25
  1639   001614  6E03               	movwf	clcd_print@data^0,c
  1640   001616  0E06               	movlw	high STR_25
  1641   001618  6E04               	movwf	(clcd_print@data+1)^0,c
  1642   00161A  0EC0               	movlw	192
  1643   00161C  6E05               	movwf	clcd_print@addr^0,c
  1644   00161E  ECAA  F00A         	call	_clcd_print	;wreg free
  1645   001622  0012               	return		;funcret
  1646   001624                     __end_of_display_menu_screen:
  1647                           	callstack 0
  1648                           
  1649 ;; *************** function _display_default_screen *****************
  1650 ;; Defined at:
  1651 ;;		line 11 in file "car_black_box.c"
  1652 ;; Parameters:    Size  Location     Type
  1653 ;;		None
  1654 ;; Auto vars:     Size  Location     Type
  1655 ;;		None
  1656 ;; Return value:  Size  Location     Type
  1657 ;;                  1    wreg      void 
  1658 ;; Registers used:
  1659 ;;		wreg, fsr2l, fsr2h, status,2, status,0, tblptrl, tblptrh, tblptru, cstack
  1660 ;; Tracked objects:
  1661 ;;		On entry : 0/0
  1662 ;;		On exit  : 0/0
  1663 ;;		Unchanged: 0/0
  1664 ;; Data sizes:     COMRAM   BANK0   BANK1   BANK2   BANK3   BANK4   BANK5
  1665 ;;      Params:         0       0       0       0       0       0       0
  1666 ;;      Locals:         0       0       0       0       0       0       0
  1667 ;;      Temps:          0       0       0       0       0       0       0
  1668 ;;      Totals:         0       0       0       0       0       0       0
  1669 ;;Total ram usage:        0 bytes
  1670 ;; Hardware stack levels used: 1
  1671 ;; Hardware stack levels required when called: 3
  1672 ;; This function calls:
  1673 ;;		_clcd_print
  1674 ;;		_display_signature
  1675 ;;		_display_speed
  1676 ;; This function is called by:
  1677 ;;		_main
  1678 ;; This function uses a non-reentrant model
  1679 ;;
  1680                           
  1681                           	psect	text7
  1682   001624                     __ptext7:
  1683                           	callstack 0
  1684   001624                     _display_default_screen:
  1685                           	callstack 27
  1686   001624                     
  1687                           ;car_black_box.c: 13:     clcd_print("  Timer   E  SP",(0x80 + (0)));
  1688   001624  0E89               	movlw	low STR_17
  1689   001626  6E03               	movwf	clcd_print@data^0,c
  1690   001628  0E06               	movlw	high STR_17
  1691   00162A  6E04               	movwf	(clcd_print@data+1)^0,c
  1692   00162C  0E80               	movlw	128
  1693   00162E  6E05               	movwf	clcd_print@addr^0,c
  1694   001630  ECAA  F00A         	call	_clcd_print	;wreg free
  1695   001634                     
  1696                           ;car_black_box.c: 16:     display_signature();
  1697   001634  EC7C  F008         	call	_display_signature	;wreg free
  1698   001638                     
  1699                           ;car_black_box.c: 18:     display_speed();
  1700   001638  EC45  F009         	call	_display_speed	;wreg free
  1701   00163C  0012               	return		;funcret
  1702   00163E                     __end_of_display_default_screen:
  1703                           	callstack 0
  1704                           
  1705 ;; *************** function _display_speed *****************
  1706 ;; Defined at:
  1707 ;;		line 51 in file "car_black_box.c"
  1708 ;; Parameters:    Size  Location     Type
  1709 ;;		None
  1710 ;; Auto vars:     Size  Location     Type
  1711 ;;  speed           2   57[COMRAM] unsigned int 
  1712 ;; Return value:  Size  Location     Type
  1713 ;;                  1    wreg      void 
  1714 ;; Registers used:
  1715 ;;		wreg, status,2, status,0, cstack
  1716 ;; Tracked objects:
  1717 ;;		On entry : 0/0
  1718 ;;		On exit  : 0/0
  1719 ;;		Unchanged: 0/0
  1720 ;; Data sizes:     COMRAM   BANK0   BANK1   BANK2   BANK3   BANK4   BANK5
  1721 ;;      Params:         0       0       0       0       0       0       0
  1722 ;;      Locals:         2       0       0       0       0       0       0
  1723 ;;      Temps:          0       0       0       0       0       0       0
  1724 ;;      Totals:         2       0       0       0       0       0       0
  1725 ;;Total ram usage:        2 bytes
  1726 ;; Hardware stack levels used: 1
  1727 ;; Hardware stack levels required when called: 2
  1728 ;; This function calls:
  1729 ;;		___fldiv
  1730 ;;		___fltol
  1731 ;;		___lwdiv
  1732 ;;		___lwmod
  1733 ;;		___xxtofl
  1734 ;;		_clcd_putch
  1735 ;;		_read_adc
  1736 ;; This function is called by:
  1737 ;;		_display_default_screen
  1738 ;; This function uses a non-reentrant model
  1739 ;;
  1740                           
  1741                           	psect	text8
  1742   00128A                     __ptext8:
  1743                           	callstack 0
  1744   00128A                     _display_speed:
  1745                           	callstack 27
  1746   00128A                     
  1747                           ;car_black_box.c: 53:     unsigned int speed =(read_adc(4))/10.23;
  1748   00128A  0E14               	movlw	20
  1749   00128C  6E1B               	movwf	___fldiv@a^0,c
  1750   00128E  0EAE               	movlw	174
  1751   001290  6E1C               	movwf	(___fldiv@a+1)^0,c
  1752   001292  0E23               	movlw	35
  1753   001294  6E1D               	movwf	(___fldiv@a+2)^0,c
  1754   001296  0E41               	movlw	65
  1755   001298  6E1E               	movwf	(___fldiv@a+3)^0,c
  1756   00129A  0E04               	movlw	4
  1757   00129C  EC85  F00A         	call	_read_adc
  1758   0012A0  C001  F009         	movff	?_read_adc,___xxtofl@val
  1759   0012A4  C002  F00A         	movff	?_read_adc+1,___xxtofl@val+1
  1760   0012A8  6A0B               	clrf	(___xxtofl@val+2)^0,c
  1761   0012AA  6A0C               	clrf	(___xxtofl@val+3)^0,c
  1762   0012AC  0E00               	movlw	0
  1763   0012AE  EC9B  F006         	call	___xxtofl
  1764   0012B2  C009  F017         	movff	?___xxtofl,___fldiv@b
  1765   0012B6  C00A  F018         	movff	?___xxtofl+1,___fldiv@b+1
  1766   0012BA  C00B  F019         	movff	?___xxtofl+2,___fldiv@b+2
  1767   0012BE  C00C  F01A         	movff	?___xxtofl+3,___fldiv@b+3
  1768   0012C2  EC59  F003         	call	___fldiv	;wreg free
  1769   0012C6  C017  F030         	movff	?___fldiv,___fltol@f1
  1770   0012CA  C018  F031         	movff	?___fldiv+1,___fltol@f1+1
  1771   0012CE  C019  F032         	movff	?___fldiv+2,___fltol@f1+2
  1772   0012D2  C01A  F033         	movff	?___fldiv+3,___fltol@f1+3
  1773   0012D6  ECF9  F007         	call	___fltol	;wreg free
  1774   0012DA  C030  F03A         	movff	?___fltol,display_speed@speed
  1775   0012DE  C031  F03B         	movff	?___fltol+1,display_speed@speed+1
  1776                           
  1777                           ;car_black_box.c: 54:     clcd_putch(((speed/10) + 48),(0xC0 + (14)));
  1778   0012E2  0ECE               	movlw	206
  1779   0012E4  6E08               	movwf	clcd_putch@addr^0,c
  1780   0012E6  C03A  F001         	movff	display_speed@speed,___lwdiv@dividend
  1781   0012EA  C03B  F002         	movff	display_speed@speed+1,___lwdiv@dividend+1
  1782   0012EE  0E00               	movlw	0
  1783   0012F0  6E04               	movwf	(___lwdiv@divisor+1)^0,c
  1784   0012F2  0E0A               	movlw	10
  1785   0012F4  6E03               	movwf	___lwdiv@divisor^0,c
  1786   0012F6  EC19  F00A         	call	___lwdiv	;wreg free
  1787   0012FA  5001               	movf	?___lwdiv^0,w,c
  1788   0012FC  0F30               	addlw	48
  1789   0012FE  EC1F  F00B         	call	_clcd_putch
  1790                           
  1791                           ;car_black_box.c: 55:     clcd_putch(((speed%10) + 48),(0xC0 + (15)));
  1792   001302  0ECF               	movlw	207
  1793   001304  6E08               	movwf	clcd_putch@addr^0,c
  1794   001306  C03A  F001         	movff	display_speed@speed,___lwmod@dividend
  1795   00130A  C03B  F002         	movff	display_speed@speed+1,___lwmod@dividend+1
  1796   00130E  0E00               	movlw	0
  1797   001310  6E04               	movwf	(___lwmod@divisor+1)^0,c
  1798   001312  0E0A               	movlw	10
  1799   001314  6E03               	movwf	___lwmod@divisor^0,c
  1800   001316  EC53  F00A         	call	___lwmod	;wreg free
  1801   00131A  5001               	movf	?___lwmod^0,w,c
  1802   00131C  0F30               	addlw	48
  1803   00131E  EC1F  F00B         	call	_clcd_putch
  1804   001322  0012               	return		;funcret
  1805   001324                     __end_of_display_speed:
  1806                           	callstack 0
  1807                           
  1808 ;; *************** function _read_adc *****************
  1809 ;; Defined at:
  1810 ;;		line 205 in file "car_black_box.c"
  1811 ;; Parameters:    Size  Location     Type
  1812 ;;  channel         1    wreg     unsigned char 
  1813 ;; Auto vars:     Size  Location     Type
  1814 ;;  channel         1    7[COMRAM] unsigned char 
  1815 ;; Return value:  Size  Location     Type
  1816 ;;                  2    0[COMRAM] unsigned short 
  1817 ;; Registers used:
  1818 ;;		wreg, status,2, status,0
  1819 ;; Tracked objects:
  1820 ;;		On entry : 0/0
  1821 ;;		On exit  : 0/0
  1822 ;;		Unchanged: 0/0
  1823 ;; Data sizes:     COMRAM   BANK0   BANK1   BANK2   BANK3   BANK4   BANK5
  1824 ;;      Params:         2       0       0       0       0       0       0
  1825 ;;      Locals:         1       0       0       0       0       0       0
  1826 ;;      Temps:          5       0       0       0       0       0       0
  1827 ;;      Totals:         8       0       0       0       0       0       0
  1828 ;;Total ram usage:        8 bytes
  1829 ;; Hardware stack levels used: 1
  1830 ;; This function calls:
  1831 ;;		Nothing
  1832 ;; This function is called by:
  1833 ;;		_display_speed
  1834 ;; This function uses a non-reentrant model
  1835 ;;
  1836                           
  1837                           	psect	text9
  1838   00150A                     __ptext9:
  1839                           	callstack 0
  1840   00150A                     _read_adc:
  1841                           	callstack 28
  1842                           
  1843                           ;incstack = 0
  1844                           ;read_adc@channel stored from wreg
  1845   00150A  6E08               	movwf	read_adc@channel^0,c
  1846   00150C                     
  1847                           ;car_black_box.c: 205: unsigned short read_adc(unsigned char channel);car_black_box.c: 2
      +                          06: {;car_black_box.c: 208:     ADCON0 = (ADCON0 & 0xC3)|(channel <<2);
  1848   00150C  C008  F003         	movff	read_adc@channel,??_read_adc
  1849   001510  90D8               	bcf	status,0,c
  1850   001512  3603               	rlcf	??_read_adc^0,f,c
  1851   001514  90D8               	bcf	status,0,c
  1852   001516  3603               	rlcf	??_read_adc^0,f,c
  1853   001518  50C2               	movf	194,w,c	;volatile
  1854   00151A  0BC3               	andlw	195
  1855   00151C  1003               	iorwf	??_read_adc^0,w,c
  1856   00151E  6EC2               	movwf	194,c	;volatile
  1857   001520                     
  1858                           ;car_black_box.c: 210:     ADFM =1;
  1859   001520  8EC0               	bsf	4032,7,c	;volatile
  1860   001522                     
  1861                           ;car_black_box.c: 212:     GO =1;
  1862   001522  82C2               	bsf	4034,1,c	;volatile
  1863   001524                     l202:
  1864   001524  B2C2               	btfsc	4034,1,c	;volatile
  1865   001526  EF97  F00A         	goto	u1011
  1866   00152A  EF99  F00A         	goto	u1010
  1867   00152E                     u1011:
  1868   00152E  EF92  F00A         	goto	l202
  1869   001532                     u1010:
  1870   001532                     
  1871                           ;car_black_box.c: 214:     return ADRESL|((ADRESH & 0x03)<<8);
  1872   001532  CFC4 F003          	movff	4036,??_read_adc	;volatile
  1873   001536  0E03               	movlw	3
  1874   001538  1603               	andwf	??_read_adc^0,f,c
  1875   00153A  5003               	movf	??_read_adc^0,w,c
  1876   00153C  6E05               	movwf	(??_read_adc+2)^0,c
  1877   00153E  6A04               	clrf	(??_read_adc+1)^0,c
  1878   001540  50C3               	movf	195,w,c	;volatile
  1879   001542  6E06               	movwf	(??_read_adc+3)^0,c
  1880   001544  6A07               	clrf	(??_read_adc+4)^0,c
  1881   001546  5004               	movf	(??_read_adc+1)^0,w,c
  1882   001548  1006               	iorwf	(??_read_adc+3)^0,w,c
  1883   00154A  6E01               	movwf	?_read_adc^0,c
  1884   00154C  5005               	movf	(??_read_adc+2)^0,w,c
  1885   00154E  1007               	iorwf	(??_read_adc+4)^0,w,c
  1886   001550  6E02               	movwf	(?_read_adc+1)^0,c
  1887   001552  0012               	return		;funcret
  1888   001554                     __end_of_read_adc:
  1889                           	callstack 0
  1890                           
  1891 ;; *************** function _clcd_putch *****************
  1892 ;; Defined at:
  1893 ;;		line 124 in file "car_black_box.c"
  1894 ;; Parameters:    Size  Location     Type
  1895 ;;  data            1    wreg     const unsigned char 
  1896 ;;  addr            1    7[COMRAM] unsigned char 
  1897 ;; Auto vars:     Size  Location     Type
  1898 ;;  data            1    8[COMRAM] const unsigned char 
  1899 ;; Return value:  Size  Location     Type
  1900 ;;                  1    wreg      void 
  1901 ;; Registers used:
  1902 ;;		wreg, status,2, cstack
  1903 ;; Tracked objects:
  1904 ;;		On entry : 0/0
  1905 ;;		On exit  : 0/0
  1906 ;;		Unchanged: 0/0
  1907 ;; Data sizes:     COMRAM   BANK0   BANK1   BANK2   BANK3   BANK4   BANK5
  1908 ;;      Params:         1       0       0       0       0       0       0
  1909 ;;      Locals:         1       0       0       0       0       0       0
  1910 ;;      Temps:          0       0       0       0       0       0       0
  1911 ;;      Totals:         2       0       0       0       0       0       0
  1912 ;;Total ram usage:        2 bytes
  1913 ;; Hardware stack levels used: 1
  1914 ;; Hardware stack levels required when called: 1
  1915 ;; This function calls:
  1916 ;;		_clcd_write
  1917 ;; This function is called by:
  1918 ;;		_display_speed
  1919 ;;		_login_screen
  1920 ;; This function uses a non-reentrant model
  1921 ;;
  1922                           
  1923                           	psect	text10
  1924   00163E                     __ptext10:
  1925                           	callstack 0
  1926   00163E                     _clcd_putch:
  1927                           	callstack 28
  1928                           
  1929                           ;incstack = 0
  1930                           ;clcd_putch@data stored from wreg
  1931   00163E  6E09               	movwf	clcd_putch@data^0,c
  1932   001640                     
  1933                           ;car_black_box.c: 124: void clcd_putch(const unsigned char data, unsigned char addr);car
      +                          _black_box.c: 125: {;car_black_box.c: 126:  clcd_write(addr, 0);
  1934   001640  0E00               	movlw	0
  1935   001642  6E01               	movwf	clcd_write@control_bit^0,c
  1936   001644  5008               	movf	clcd_putch@addr^0,w,c
  1937   001646  ECCC  F00A         	call	_clcd_write
  1938                           
  1939                           ;car_black_box.c: 127:  clcd_write(data, 1);
  1940   00164A  0E01               	movlw	1
  1941   00164C  6E01               	movwf	clcd_write@control_bit^0,c
  1942   00164E  5009               	movf	clcd_putch@data^0,w,c
  1943   001650  ECCC  F00A         	call	_clcd_write
  1944   001654  0012               	return		;funcret
  1945   001656                     __end_of_clcd_putch:
  1946                           	callstack 0
  1947                           
  1948 ;; *************** function ___xxtofl *****************
  1949 ;; Defined at:
  1950 ;;		line 10 in file "C:\Program Files\Microchip\xc8\v2.41\pic\sources\c99\common\xxtofl.c"
  1951 ;; Parameters:    Size  Location     Type
  1952 ;;  sign            1    wreg     unsigned char 
  1953 ;;  val             4    8[COMRAM] long 
  1954 ;; Auto vars:     Size  Location     Type
  1955 ;;  sign            1   16[COMRAM] unsigned char 
  1956 ;;  arg             4   18[COMRAM] unsigned long 
  1957 ;;  exp             1   17[COMRAM] unsigned char 
  1958 ;; Return value:  Size  Location     Type
  1959 ;;                  4    8[COMRAM] unsigned char 
  1960 ;; Registers used:
  1961 ;;		wreg, status,2, status,0
  1962 ;; Tracked objects:
  1963 ;;		On entry : 0/0
  1964 ;;		On exit  : 0/0
  1965 ;;		Unchanged: 0/0
  1966 ;; Data sizes:     COMRAM   BANK0   BANK1   BANK2   BANK3   BANK4   BANK5
  1967 ;;      Params:         4       0       0       0       0       0       0
  1968 ;;      Locals:         6       0       0       0       0       0       0
  1969 ;;      Temps:          4       0       0       0       0       0       0
  1970 ;;      Totals:        14       0       0       0       0       0       0
  1971 ;;Total ram usage:       14 bytes
  1972 ;; Hardware stack levels used: 1
  1973 ;; This function calls:
  1974 ;;		Nothing
  1975 ;; This function is called by:
  1976 ;;		_display_speed
  1977 ;; This function uses a non-reentrant model
  1978 ;;
  1979                           
  1980                           	psect	text11
  1981   000D36                     __ptext11:
  1982                           	callstack 0
  1983   000D36                     ___xxtofl:
  1984                           	callstack 28
  1985                           
  1986                           ;incstack = 0
  1987                           ;___xxtofl@sign stored from wreg
  1988   000D36  6E11               	movwf	___xxtofl@sign^0,c
  1989   000D38  5011               	movf	___xxtofl@sign^0,w,c
  1990   000D3A  B4D8               	btfsc	status,2,c
  1991   000D3C  EFA2  F006         	goto	u1381
  1992   000D40  EFA4  F006         	goto	u1380
  1993   000D44                     u1381:
  1994   000D44  EFC6  F006         	goto	l896
  1995   000D48                     u1380:
  1996   000D48  BE0C               	btfsc	(___xxtofl@val+3)^0,7,c
  1997   000D4A  EFAB  F006         	goto	u1390
  1998   000D4E  EFA9  F006         	goto	u1391
  1999   000D52                     u1391:
  2000   000D52  EFC6  F006         	goto	l896
  2001   000D56                     u1390:
  2002   000D56  C009  F00D         	movff	___xxtofl@val,??___xxtofl
  2003   000D5A  C00A  F00E         	movff	___xxtofl@val+1,??___xxtofl+1
  2004   000D5E  C00B  F00F         	movff	___xxtofl@val+2,??___xxtofl+2
  2005   000D62  C00C  F010         	movff	___xxtofl@val+3,??___xxtofl+3
  2006   000D66  1E0D               	comf	??___xxtofl^0,f,c
  2007   000D68  1E0E               	comf	(??___xxtofl+1)^0,f,c
  2008   000D6A  1E0F               	comf	(??___xxtofl+2)^0,f,c
  2009   000D6C  1E10               	comf	(??___xxtofl+3)^0,f,c
  2010   000D6E  2A0D               	incf	??___xxtofl^0,f,c
  2011   000D70  0E00               	movlw	0
  2012   000D72  220E               	addwfc	(??___xxtofl+1)^0,f,c
  2013   000D74  220F               	addwfc	(??___xxtofl+2)^0,f,c
  2014   000D76  2210               	addwfc	(??___xxtofl+3)^0,f,c
  2015   000D78  C00D  F013         	movff	??___xxtofl,___xxtofl@arg
  2016   000D7C  C00E  F014         	movff	??___xxtofl+1,___xxtofl@arg+1
  2017   000D80  C00F  F015         	movff	??___xxtofl+2,___xxtofl@arg+2
  2018   000D84  C010  F016         	movff	??___xxtofl+3,___xxtofl@arg+3
  2019   000D88  EFCE  F006         	goto	l1796
  2020   000D8C                     l896:
  2021   000D8C  C009  F013         	movff	___xxtofl@val,___xxtofl@arg
  2022   000D90  C00A  F014         	movff	___xxtofl@val+1,___xxtofl@arg+1
  2023   000D94  C00B  F015         	movff	___xxtofl@val+2,___xxtofl@arg+2
  2024   000D98  C00C  F016         	movff	___xxtofl@val+3,___xxtofl@arg+3
  2025   000D9C                     l1796:
  2026   000D9C  5009               	movf	___xxtofl@val^0,w,c
  2027   000D9E  100A               	iorwf	(___xxtofl@val+1)^0,w,c
  2028   000DA0  100B               	iorwf	(___xxtofl@val+2)^0,w,c
  2029   000DA2  100C               	iorwf	(___xxtofl@val+3)^0,w,c
  2030   000DA4  A4D8               	btfss	status,2,c
  2031   000DA6  EFD7  F006         	goto	u1401
  2032   000DAA  EFD9  F006         	goto	u1400
  2033   000DAE                     u1401:
  2034   000DAE  EFE3  F006         	goto	l1802
  2035   000DB2                     u1400:
  2036   000DB2  0E00               	movlw	0
  2037   000DB4  6E09               	movwf	?___xxtofl^0,c
  2038   000DB6  0E00               	movlw	0
  2039   000DB8  6E0A               	movwf	(?___xxtofl+1)^0,c
  2040   000DBA  0E00               	movlw	0
  2041   000DBC  6E0B               	movwf	(?___xxtofl+2)^0,c
  2042   000DBE  0E00               	movlw	0
  2043   000DC0  6E0C               	movwf	(?___xxtofl+3)^0,c
  2044   000DC2  EF74  F007         	goto	l899
  2045   000DC6                     l1802:
  2046   000DC6  0E96               	movlw	150
  2047   000DC8  6E12               	movwf	___xxtofl@exp^0,c
  2048   000DCA  EFED  F006         	goto	l1806
  2049   000DCE                     l1804:
  2050   000DCE  2A12               	incf	___xxtofl@exp^0,f,c
  2051   000DD0  90D8               	bcf	status,0,c
  2052   000DD2  3216               	rrcf	(___xxtofl@arg+3)^0,f,c
  2053   000DD4  3215               	rrcf	(___xxtofl@arg+2)^0,f,c
  2054   000DD6  3214               	rrcf	(___xxtofl@arg+1)^0,f,c
  2055   000DD8  3213               	rrcf	___xxtofl@arg^0,f,c
  2056   000DDA                     l1806:
  2057   000DDA  0E00               	movlw	0
  2058   000DDC  1413               	andwf	___xxtofl@arg^0,w,c
  2059   000DDE  6E0D               	movwf	??___xxtofl^0,c
  2060   000DE0  0E00               	movlw	0
  2061   000DE2  1414               	andwf	(___xxtofl@arg+1)^0,w,c
  2062   000DE4  6E0E               	movwf	(??___xxtofl+1)^0,c
  2063   000DE6  0E00               	movlw	0
  2064   000DE8  1415               	andwf	(___xxtofl@arg+2)^0,w,c
  2065   000DEA  6E0F               	movwf	(??___xxtofl+2)^0,c
  2066   000DEC  0EFE               	movlw	254
  2067   000DEE  1416               	andwf	(___xxtofl@arg+3)^0,w,c
  2068   000DF0  6E10               	movwf	(??___xxtofl+3)^0,c
  2069   000DF2  500D               	movf	??___xxtofl^0,w,c
  2070   000DF4  100E               	iorwf	(??___xxtofl+1)^0,w,c
  2071   000DF6  100F               	iorwf	(??___xxtofl+2)^0,w,c
  2072   000DF8  1010               	iorwf	(??___xxtofl+3)^0,w,c
  2073   000DFA  A4D8               	btfss	status,2,c
  2074   000DFC  EF02  F007         	goto	u1411
  2075   000E00  EF04  F007         	goto	u1410
  2076   000E04                     u1411:
  2077   000E04  EFE7  F006         	goto	l1804
  2078   000E08                     u1410:
  2079   000E08  EF12  F007         	goto	l903
  2080   000E0C                     l1808:
  2081   000E0C  2A12               	incf	___xxtofl@exp^0,f,c
  2082   000E0E  0E01               	movlw	1
  2083   000E10  2613               	addwf	___xxtofl@arg^0,f,c
  2084   000E12  0E00               	movlw	0
  2085   000E14  2214               	addwfc	(___xxtofl@arg+1)^0,f,c
  2086   000E16  2215               	addwfc	(___xxtofl@arg+2)^0,f,c
  2087   000E18  2216               	addwfc	(___xxtofl@arg+3)^0,f,c
  2088   000E1A  90D8               	bcf	status,0,c
  2089   000E1C  3216               	rrcf	(___xxtofl@arg+3)^0,f,c
  2090   000E1E  3215               	rrcf	(___xxtofl@arg+2)^0,f,c
  2091   000E20  3214               	rrcf	(___xxtofl@arg+1)^0,f,c
  2092   000E22  3213               	rrcf	___xxtofl@arg^0,f,c
  2093   000E24                     l903:
  2094   000E24  0E00               	movlw	0
  2095   000E26  1413               	andwf	___xxtofl@arg^0,w,c
  2096   000E28  6E0D               	movwf	??___xxtofl^0,c
  2097   000E2A  0E00               	movlw	0
  2098   000E2C  1414               	andwf	(___xxtofl@arg+1)^0,w,c
  2099   000E2E  6E0E               	movwf	(??___xxtofl+1)^0,c
  2100   000E30  0E00               	movlw	0
  2101   000E32  1415               	andwf	(___xxtofl@arg+2)^0,w,c
  2102   000E34  6E0F               	movwf	(??___xxtofl+2)^0,c
  2103   000E36  0EFF               	movlw	255
  2104   000E38  1416               	andwf	(___xxtofl@arg+3)^0,w,c
  2105   000E3A  6E10               	movwf	(??___xxtofl+3)^0,c
  2106   000E3C  500D               	movf	??___xxtofl^0,w,c
  2107   000E3E  100E               	iorwf	(??___xxtofl+1)^0,w,c
  2108   000E40  100F               	iorwf	(??___xxtofl+2)^0,w,c
  2109   000E42  1010               	iorwf	(??___xxtofl+3)^0,w,c
  2110   000E44  A4D8               	btfss	status,2,c
  2111   000E46  EF27  F007         	goto	u1421
  2112   000E4A  EF29  F007         	goto	u1420
  2113   000E4E                     u1421:
  2114   000E4E  EF06  F007         	goto	l1808
  2115   000E52                     u1420:
  2116   000E52  EF31  F007         	goto	l1816
  2117   000E56                     l1814:
  2118   000E56  0612               	decf	___xxtofl@exp^0,f,c
  2119   000E58  90D8               	bcf	status,0,c
  2120   000E5A  3613               	rlcf	___xxtofl@arg^0,f,c
  2121   000E5C  3614               	rlcf	(___xxtofl@arg+1)^0,f,c
  2122   000E5E  3615               	rlcf	(___xxtofl@arg+2)^0,f,c
  2123   000E60  3616               	rlcf	(___xxtofl@arg+3)^0,f,c
  2124   000E62                     l1816:
  2125   000E62  BE15               	btfsc	(___xxtofl@arg+2)^0,7,c
  2126   000E64  EF36  F007         	goto	u1431
  2127   000E68  EF38  F007         	goto	u1430
  2128   000E6C                     u1431:
  2129   000E6C  EF40  F007         	goto	l910
  2130   000E70                     u1430:
  2131   000E70  0E02               	movlw	2
  2132   000E72  6012               	cpfslt	___xxtofl@exp^0,c
  2133   000E74  EF3E  F007         	goto	u1441
  2134   000E78  EF40  F007         	goto	u1440
  2135   000E7C                     u1441:
  2136   000E7C  EF2B  F007         	goto	l1814
  2137   000E80                     u1440:
  2138   000E80                     l910:
  2139   000E80  B012               	btfsc	___xxtofl@exp^0,0,c
  2140   000E82  EF45  F007         	goto	u1451
  2141   000E86  EF47  F007         	goto	u1450
  2142   000E8A                     u1451:
  2143   000E8A  EF48  F007         	goto	l1822
  2144   000E8E                     u1450:
  2145   000E8E  9E15               	bcf	(___xxtofl@arg+2)^0,7,c
  2146   000E90                     l1822:
  2147   000E90  90D8               	bcf	status,0,c
  2148   000E92  3212               	rrcf	___xxtofl@exp^0,f,c
  2149   000E94  C012  F00D         	movff	___xxtofl@exp,??___xxtofl
  2150   000E98  6A0E               	clrf	(??___xxtofl+1)^0,c
  2151   000E9A  6A0F               	clrf	(??___xxtofl+2)^0,c
  2152   000E9C  6A10               	clrf	(??___xxtofl+3)^0,c
  2153   000E9E  C00D  F010         	movff	??___xxtofl,??___xxtofl+3
  2154   000EA2  6A0F               	clrf	(??___xxtofl+2)^0,c
  2155   000EA4  6A0E               	clrf	(??___xxtofl+1)^0,c
  2156   000EA6  6A0D               	clrf	??___xxtofl^0,c
  2157   000EA8  500D               	movf	??___xxtofl^0,w,c
  2158   000EAA  1213               	iorwf	___xxtofl@arg^0,f,c
  2159   000EAC  500E               	movf	(??___xxtofl+1)^0,w,c
  2160   000EAE  1214               	iorwf	(___xxtofl@arg+1)^0,f,c
  2161   000EB0  500F               	movf	(??___xxtofl+2)^0,w,c
  2162   000EB2  1215               	iorwf	(___xxtofl@arg+2)^0,f,c
  2163   000EB4  5010               	movf	(??___xxtofl+3)^0,w,c
  2164   000EB6  1216               	iorwf	(___xxtofl@arg+3)^0,f,c
  2165   000EB8  5011               	movf	___xxtofl@sign^0,w,c
  2166   000EBA  B4D8               	btfsc	status,2,c
  2167   000EBC  EF62  F007         	goto	u1461
  2168   000EC0  EF64  F007         	goto	u1460
  2169   000EC4                     u1461:
  2170   000EC4  EF6C  F007         	goto	l1832
  2171   000EC8                     u1460:
  2172   000EC8  BE0C               	btfsc	(___xxtofl@val+3)^0,7,c
  2173   000ECA  EF6B  F007         	goto	u1470
  2174   000ECE  EF69  F007         	goto	u1471
  2175   000ED2                     u1471:
  2176   000ED2  EF6C  F007         	goto	l1832
  2177   000ED6                     u1470:
  2178   000ED6  8E16               	bsf	(___xxtofl@arg+3)^0,7,c
  2179   000ED8                     l1832:
  2180   000ED8  C013  F009         	movff	___xxtofl@arg,?___xxtofl
  2181   000EDC  C014  F00A         	movff	___xxtofl@arg+1,?___xxtofl+1
  2182   000EE0  C015  F00B         	movff	___xxtofl@arg+2,?___xxtofl+2
  2183   000EE4  C016  F00C         	movff	___xxtofl@arg+3,?___xxtofl+3
  2184   000EE8                     l899:
  2185   000EE8  0012               	return		;funcret
  2186   000EEA                     __end_of___xxtofl:
  2187                           	callstack 0
  2188                           
  2189 ;; *************** function ___lwmod *****************
  2190 ;; Defined at:
  2191 ;;		line 7 in file "C:\Program Files\Microchip\xc8\v2.41\pic\sources\c99\common\lwmod.c"
  2192 ;; Parameters:    Size  Location     Type
  2193 ;;  dividend        2    0[COMRAM] unsigned int 
  2194 ;;  divisor         2    2[COMRAM] unsigned int 
  2195 ;; Auto vars:     Size  Location     Type
  2196 ;;  counter         1    4[COMRAM] unsigned char 
  2197 ;; Return value:  Size  Location     Type
  2198 ;;                  2    0[COMRAM] unsigned int 
  2199 ;; Registers used:
  2200 ;;		wreg, status,2, status,0
  2201 ;; Tracked objects:
  2202 ;;		On entry : 0/0
  2203 ;;		On exit  : 0/0
  2204 ;;		Unchanged: 0/0
  2205 ;; Data sizes:     COMRAM   BANK0   BANK1   BANK2   BANK3   BANK4   BANK5
  2206 ;;      Params:         4       0       0       0       0       0       0
  2207 ;;      Locals:         1       0       0       0       0       0       0
  2208 ;;      Temps:          0       0       0       0       0       0       0
  2209 ;;      Totals:         5       0       0       0       0       0       0
  2210 ;;Total ram usage:        5 bytes
  2211 ;; Hardware stack levels used: 1
  2212 ;; This function calls:
  2213 ;;		Nothing
  2214 ;; This function is called by:
  2215 ;;		_display_speed
  2216 ;; This function uses a non-reentrant model
  2217 ;;
  2218                           
  2219                           	psect	text12
  2220   0014A6                     __ptext12:
  2221                           	callstack 0
  2222   0014A6                     ___lwmod:
  2223                           	callstack 28
  2224   0014A6  5003               	movf	___lwmod@divisor^0,w,c
  2225   0014A8  1004               	iorwf	(___lwmod@divisor+1)^0,w,c
  2226   0014AA  B4D8               	btfsc	status,2,c
  2227   0014AC  EF5A  F00A         	goto	u1351
  2228   0014B0  EF5C  F00A         	goto	u1350
  2229   0014B4                     u1351:
  2230   0014B4  EF80  F00A         	goto	l742
  2231   0014B8                     u1350:
  2232   0014B8  0E01               	movlw	1
  2233   0014BA  6E05               	movwf	___lwmod@counter^0,c
  2234   0014BC  EF64  F00A         	goto	l1780
  2235   0014C0                     l1778:
  2236   0014C0  90D8               	bcf	status,0,c
  2237   0014C2  3603               	rlcf	___lwmod@divisor^0,f,c
  2238   0014C4  3604               	rlcf	(___lwmod@divisor+1)^0,f,c
  2239   0014C6  2A05               	incf	___lwmod@counter^0,f,c
  2240   0014C8                     l1780:
  2241   0014C8  AE04               	btfss	(___lwmod@divisor+1)^0,7,c
  2242   0014CA  EF69  F00A         	goto	u1361
  2243   0014CE  EF6B  F00A         	goto	u1360
  2244   0014D2                     u1361:
  2245   0014D2  EF60  F00A         	goto	l1778
  2246   0014D6                     u1360:
  2247   0014D6                     l1782:
  2248   0014D6  5003               	movf	___lwmod@divisor^0,w,c
  2249   0014D8  5C01               	subwf	___lwmod@dividend^0,w,c
  2250   0014DA  5004               	movf	(___lwmod@divisor+1)^0,w,c
  2251   0014DC  5802               	subwfb	(___lwmod@dividend+1)^0,w,c
  2252   0014DE  A0D8               	btfss	status,0,c
  2253   0014E0  EF74  F00A         	goto	u1371
  2254   0014E4  EF76  F00A         	goto	u1370
  2255   0014E8                     u1371:
  2256   0014E8  EF7A  F00A         	goto	l1786
  2257   0014EC                     u1370:
  2258   0014EC  5003               	movf	___lwmod@divisor^0,w,c
  2259   0014EE  5E01               	subwf	___lwmod@dividend^0,f,c
  2260   0014F0  5004               	movf	(___lwmod@divisor+1)^0,w,c
  2261   0014F2  5A02               	subwfb	(___lwmod@dividend+1)^0,f,c
  2262   0014F4                     l1786:
  2263   0014F4  90D8               	bcf	status,0,c
  2264   0014F6  3204               	rrcf	(___lwmod@divisor+1)^0,f,c
  2265   0014F8  3203               	rrcf	___lwmod@divisor^0,f,c
  2266   0014FA  2E05               	decfsz	___lwmod@counter^0,f,c
  2267   0014FC  EF6B  F00A         	goto	l1782
  2268   001500                     l742:
  2269   001500  C001  F001         	movff	___lwmod@dividend,?___lwmod
  2270   001504  C002  F002         	movff	___lwmod@dividend+1,?___lwmod+1
  2271   001508  0012               	return		;funcret
  2272   00150A                     __end_of___lwmod:
  2273                           	callstack 0
  2274                           
  2275 ;; *************** function ___lwdiv *****************
  2276 ;; Defined at:
  2277 ;;		line 7 in file "C:\Program Files\Microchip\xc8\v2.41\pic\sources\c99\common\lwdiv.c"
  2278 ;; Parameters:    Size  Location     Type
  2279 ;;  dividend        2    0[COMRAM] unsigned int 
  2280 ;;  divisor         2    2[COMRAM] unsigned int 
  2281 ;; Auto vars:     Size  Location     Type
  2282 ;;  quotient        2    4[COMRAM] unsigned int 
  2283 ;;  counter         1    6[COMRAM] unsigned char 
  2284 ;; Return value:  Size  Location     Type
  2285 ;;                  2    0[COMRAM] unsigned int 
  2286 ;; Registers used:
  2287 ;;		wreg, status,2, status,0
  2288 ;; Tracked objects:
  2289 ;;		On entry : 0/0
  2290 ;;		On exit  : 0/0
  2291 ;;		Unchanged: 0/0
  2292 ;; Data sizes:     COMRAM   BANK0   BANK1   BANK2   BANK3   BANK4   BANK5
  2293 ;;      Params:         4       0       0       0       0       0       0
  2294 ;;      Locals:         3       0       0       0       0       0       0
  2295 ;;      Temps:          0       0       0       0       0       0       0
  2296 ;;      Totals:         7       0       0       0       0       0       0
  2297 ;;Total ram usage:        7 bytes
  2298 ;; Hardware stack levels used: 1
  2299 ;; This function calls:
  2300 ;;		Nothing
  2301 ;; This function is called by:
  2302 ;;		_display_speed
  2303 ;; This function uses a non-reentrant model
  2304 ;;
  2305                           
  2306                           	psect	text13
  2307   001432                     __ptext13:
  2308                           	callstack 0
  2309   001432                     ___lwdiv:
  2310                           	callstack 28
  2311   001432  0E00               	movlw	0
  2312   001434  6E06               	movwf	(___lwdiv@quotient+1)^0,c
  2313   001436  0E00               	movlw	0
  2314   001438  6E05               	movwf	___lwdiv@quotient^0,c
  2315   00143A  5003               	movf	___lwdiv@divisor^0,w,c
  2316   00143C  1004               	iorwf	(___lwdiv@divisor+1)^0,w,c
  2317   00143E  B4D8               	btfsc	status,2,c
  2318   001440  EF24  F00A         	goto	u1321
  2319   001444  EF26  F00A         	goto	u1320
  2320   001448                     u1321:
  2321   001448  EF4E  F00A         	goto	l732
  2322   00144C                     u1320:
  2323   00144C  0E01               	movlw	1
  2324   00144E  6E07               	movwf	___lwdiv@counter^0,c
  2325   001450  EF2E  F00A         	goto	l1760
  2326   001454                     l1758:
  2327   001454  90D8               	bcf	status,0,c
  2328   001456  3603               	rlcf	___lwdiv@divisor^0,f,c
  2329   001458  3604               	rlcf	(___lwdiv@divisor+1)^0,f,c
  2330   00145A  2A07               	incf	___lwdiv@counter^0,f,c
  2331   00145C                     l1760:
  2332   00145C  AE04               	btfss	(___lwdiv@divisor+1)^0,7,c
  2333   00145E  EF33  F00A         	goto	u1331
  2334   001462  EF35  F00A         	goto	u1330
  2335   001466                     u1331:
  2336   001466  EF2A  F00A         	goto	l1758
  2337   00146A                     u1330:
  2338   00146A                     l1762:
  2339   00146A  90D8               	bcf	status,0,c
  2340   00146C  3605               	rlcf	___lwdiv@quotient^0,f,c
  2341   00146E  3606               	rlcf	(___lwdiv@quotient+1)^0,f,c
  2342   001470  5003               	movf	___lwdiv@divisor^0,w,c
  2343   001472  5C01               	subwf	___lwdiv@dividend^0,w,c
  2344   001474  5004               	movf	(___lwdiv@divisor+1)^0,w,c
  2345   001476  5802               	subwfb	(___lwdiv@dividend+1)^0,w,c
  2346   001478  A0D8               	btfss	status,0,c
  2347   00147A  EF41  F00A         	goto	u1341
  2348   00147E  EF43  F00A         	goto	u1340
  2349   001482                     u1341:
  2350   001482  EF48  F00A         	goto	l1770
  2351   001486                     u1340:
  2352   001486  5003               	movf	___lwdiv@divisor^0,w,c
  2353   001488  5E01               	subwf	___lwdiv@dividend^0,f,c
  2354   00148A  5004               	movf	(___lwdiv@divisor+1)^0,w,c
  2355   00148C  5A02               	subwfb	(___lwdiv@dividend+1)^0,f,c
  2356   00148E  8005               	bsf	___lwdiv@quotient^0,0,c
  2357   001490                     l1770:
  2358   001490  90D8               	bcf	status,0,c
  2359   001492  3204               	rrcf	(___lwdiv@divisor+1)^0,f,c
  2360   001494  3203               	rrcf	___lwdiv@divisor^0,f,c
  2361   001496  2E07               	decfsz	___lwdiv@counter^0,f,c
  2362   001498  EF35  F00A         	goto	l1762
  2363   00149C                     l732:
  2364   00149C  C005  F001         	movff	___lwdiv@quotient,?___lwdiv
  2365   0014A0  C006  F002         	movff	___lwdiv@quotient+1,?___lwdiv+1
  2366   0014A4  0012               	return		;funcret
  2367   0014A6                     __end_of___lwdiv:
  2368                           	callstack 0
  2369                           
  2370 ;; *************** function ___fltol *****************
  2371 ;; Defined at:
  2372 ;;		line 43 in file "C:\Program Files\Microchip\xc8\v2.41\pic\sources\c99\common\fltol.c"
  2373 ;; Parameters:    Size  Location     Type
  2374 ;;  f1              4   47[COMRAM] unsigned int 
  2375 ;; Auto vars:     Size  Location     Type
  2376 ;;  exp1            1   56[COMRAM] unsigned char 
  2377 ;;  sign1           1   55[COMRAM] unsigned char 
  2378 ;; Return value:  Size  Location     Type
  2379 ;;                  4   47[COMRAM] long 
  2380 ;; Registers used:
  2381 ;;		wreg, status,2, status,0
  2382 ;; Tracked objects:
  2383 ;;		On entry : 0/0
  2384 ;;		On exit  : 0/0
  2385 ;;		Unchanged: 0/0
  2386 ;; Data sizes:     COMRAM   BANK0   BANK1   BANK2   BANK3   BANK4   BANK5
  2387 ;;      Params:         4       0       0       0       0       0       0
  2388 ;;      Locals:         2       0       0       0       0       0       0
  2389 ;;      Temps:          4       0       0       0       0       0       0
  2390 ;;      Totals:        10       0       0       0       0       0       0
  2391 ;;Total ram usage:       10 bytes
  2392 ;; Hardware stack levels used: 1
  2393 ;; This function calls:
  2394 ;;		Nothing
  2395 ;; This function is called by:
  2396 ;;		_display_speed
  2397 ;; This function uses a non-reentrant model
  2398 ;;
  2399                           
  2400                           	psect	text14
  2401   000FF2                     __ptext14:
  2402                           	callstack 0
  2403   000FF2                     ___fltol:
  2404                           	callstack 28
  2405   000FF2  3432               	rlcf	(___fltol@f1+2)^0,w,c
  2406   000FF4  3433               	rlcf	(___fltol@f1+3)^0,w,c
  2407   000FF6  6E39               	movwf	___fltol@exp1^0,c
  2408   000FF8  5039               	movf	___fltol@exp1^0,w,c
  2409   000FFA  A4D8               	btfss	status,2,c
  2410   000FFC  EF02  F008         	goto	u1251
  2411   001000  EF04  F008         	goto	u1250
  2412   001004                     u1251:
  2413   001004  EF0E  F008         	goto	l1714
  2414   001008                     u1250:
  2415   001008                     l1710:
  2416   001008  0E00               	movlw	0
  2417   00100A  6E30               	movwf	?___fltol^0,c
  2418   00100C  0E00               	movlw	0
  2419   00100E  6E31               	movwf	(?___fltol+1)^0,c
  2420   001010  0E00               	movlw	0
  2421   001012  6E32               	movwf	(?___fltol+2)^0,c
  2422   001014  0E00               	movlw	0
  2423   001016  6E33               	movwf	(?___fltol+3)^0,c
  2424   001018  EF7B  F008         	goto	l538
  2425   00101C                     l1714:
  2426   00101C  C030  F034         	movff	___fltol@f1,??___fltol
  2427   001020  C031  F035         	movff	___fltol@f1+1,??___fltol+1
  2428   001024  C032  F036         	movff	___fltol@f1+2,??___fltol+2
  2429   001028  C033  F037         	movff	___fltol@f1+3,??___fltol+3
  2430   00102C  0E20               	movlw	32
  2431   00102E  EF1E  F008         	goto	u1260
  2432   001032                     u1265:
  2433   001032  90D8               	bcf	status,0,c
  2434   001034  3237               	rrcf	(??___fltol+3)^0,f,c
  2435   001036  3236               	rrcf	(??___fltol+2)^0,f,c
  2436   001038  3235               	rrcf	(??___fltol+1)^0,f,c
  2437   00103A  3234               	rrcf	??___fltol^0,f,c
  2438   00103C                     u1260:
  2439   00103C  2EE8               	decfsz	wreg,f,c
  2440   00103E  EF19  F008         	goto	u1265
  2441   001042  5034               	movf	??___fltol^0,w,c
  2442   001044  6E38               	movwf	___fltol@sign1^0,c
  2443   001046  8E32               	bsf	(___fltol@f1+2)^0,7,c
  2444   001048  0EFF               	movlw	255
  2445   00104A  1630               	andwf	___fltol@f1^0,f,c
  2446   00104C  0EFF               	movlw	255
  2447   00104E  1631               	andwf	(___fltol@f1+1)^0,f,c
  2448   001050  0EFF               	movlw	255
  2449   001052  1632               	andwf	(___fltol@f1+2)^0,f,c
  2450   001054  0E00               	movlw	0
  2451   001056  1633               	andwf	(___fltol@f1+3)^0,f,c
  2452   001058  0E96               	movlw	150
  2453   00105A  5E39               	subwf	___fltol@exp1^0,f,c
  2454   00105C  BE39               	btfsc	___fltol@exp1^0,7,c
  2455   00105E  EF35  F008         	goto	u1270
  2456   001062  EF33  F008         	goto	u1271
  2457   001066                     u1271:
  2458   001066  EF4B  F008         	goto	l1734
  2459   00106A                     u1270:
  2460   00106A  5039               	movf	___fltol@exp1^0,w,c
  2461   00106C  0A80               	xorlw	128
  2462   00106E  0F97               	addlw	151
  2463   001070  B0D8               	btfsc	status,0,c
  2464   001072  EF3D  F008         	goto	u1281
  2465   001076  EF3F  F008         	goto	u1280
  2466   00107A                     u1281:
  2467   00107A  EF41  F008         	goto	l1730
  2468   00107E                     u1280:
  2469   00107E  EF04  F008         	goto	l1710
  2470   001082                     l1730:
  2471   001082  90D8               	bcf	status,0,c
  2472   001084  3233               	rrcf	(___fltol@f1+3)^0,f,c
  2473   001086  3232               	rrcf	(___fltol@f1+2)^0,f,c
  2474   001088  3231               	rrcf	(___fltol@f1+1)^0,f,c
  2475   00108A  3230               	rrcf	___fltol@f1^0,f,c
  2476   00108C  3E39               	incfsz	___fltol@exp1^0,f,c
  2477   00108E  EF41  F008         	goto	l1730
  2478   001092  EF63  F008         	goto	l1744
  2479   001096                     l1734:
  2480   001096  0E1F               	movlw	31
  2481   001098  6439               	cpfsgt	___fltol@exp1^0,c
  2482   00109A  EF51  F008         	goto	u1291
  2483   00109E  EF53  F008         	goto	u1290
  2484   0010A2                     u1291:
  2485   0010A2  EF5B  F008         	goto	l1742
  2486   0010A6                     u1290:
  2487   0010A6  EF04  F008         	goto	l1710
  2488   0010AA                     l1740:
  2489   0010AA  90D8               	bcf	status,0,c
  2490   0010AC  3630               	rlcf	___fltol@f1^0,f,c
  2491   0010AE  3631               	rlcf	(___fltol@f1+1)^0,f,c
  2492   0010B0  3632               	rlcf	(___fltol@f1+2)^0,f,c
  2493   0010B2  3633               	rlcf	(___fltol@f1+3)^0,f,c
  2494   0010B4  0639               	decf	___fltol@exp1^0,f,c
  2495   0010B6                     l1742:
  2496   0010B6  5039               	movf	___fltol@exp1^0,w,c
  2497   0010B8  A4D8               	btfss	status,2,c
  2498   0010BA  EF61  F008         	goto	u1301
  2499   0010BE  EF63  F008         	goto	u1300
  2500   0010C2                     u1301:
  2501   0010C2  EF55  F008         	goto	l1740
  2502   0010C6                     u1300:
  2503   0010C6                     l1744:
  2504   0010C6  5038               	movf	___fltol@sign1^0,w,c
  2505   0010C8  B4D8               	btfsc	status,2,c
  2506   0010CA  EF69  F008         	goto	u1311
  2507   0010CE  EF6B  F008         	goto	u1310
  2508   0010D2                     u1311:
  2509   0010D2  EF73  F008         	goto	l1748
  2510   0010D6                     u1310:
  2511   0010D6  1E33               	comf	(___fltol@f1+3)^0,f,c
  2512   0010D8  1E32               	comf	(___fltol@f1+2)^0,f,c
  2513   0010DA  1E31               	comf	(___fltol@f1+1)^0,f,c
  2514   0010DC  6C30               	negf	___fltol@f1^0,c
  2515   0010DE  0E00               	movlw	0
  2516   0010E0  2231               	addwfc	(___fltol@f1+1)^0,f,c
  2517   0010E2  2232               	addwfc	(___fltol@f1+2)^0,f,c
  2518   0010E4  2233               	addwfc	(___fltol@f1+3)^0,f,c
  2519   0010E6                     l1748:
  2520   0010E6  C030  F030         	movff	___fltol@f1,?___fltol
  2521   0010EA  C031  F031         	movff	___fltol@f1+1,?___fltol+1
  2522   0010EE  C032  F032         	movff	___fltol@f1+2,?___fltol+2
  2523   0010F2  C033  F033         	movff	___fltol@f1+3,?___fltol+3
  2524   0010F6                     l538:
  2525   0010F6  0012               	return		;funcret
  2526   0010F8                     __end_of___fltol:
  2527                           	callstack 0
  2528                           
  2529 ;; *************** function ___fldiv *****************
  2530 ;; Defined at:
  2531 ;;		line 11 in file "C:\Program Files\Microchip\xc8\v2.41\pic\sources\c99\common\sprcdiv.c"
  2532 ;; Parameters:    Size  Location     Type
  2533 ;;  b               4   22[COMRAM] long 
  2534 ;;  a               4   26[COMRAM] long 
  2535 ;; Auto vars:     Size  Location     Type
  2536 ;;  grs             4   41[COMRAM] unsigned long 
  2537 ;;  rem             4   34[COMRAM] unsigned long 
  2538 ;;  new_exp         2   39[COMRAM] short 
  2539 ;;  aexp            1   46[COMRAM] unsigned char 
  2540 ;;  bexp            1   45[COMRAM] unsigned char 
  2541 ;;  sign            1   38[COMRAM] unsigned char 
  2542 ;; Return value:  Size  Location     Type
  2543 ;;                  4   22[COMRAM] unsigned char 
  2544 ;; Registers used:
  2545 ;;		wreg, status,2, status,0
  2546 ;; Tracked objects:
  2547 ;;		On entry : 0/0
  2548 ;;		On exit  : 0/0
  2549 ;;		Unchanged: 0/0
  2550 ;; Data sizes:     COMRAM   BANK0   BANK1   BANK2   BANK3   BANK4   BANK5
  2551 ;;      Params:         8       0       0       0       0       0       0
  2552 ;;      Locals:        13       0       0       0       0       0       0
  2553 ;;      Temps:          4       0       0       0       0       0       0
  2554 ;;      Totals:        25       0       0       0       0       0       0
  2555 ;;Total ram usage:       25 bytes
  2556 ;; Hardware stack levels used: 1
  2557 ;; This function calls:
  2558 ;;		Nothing
  2559 ;; This function is called by:
  2560 ;;		_display_speed
  2561 ;; This function uses a non-reentrant model
  2562 ;;
  2563                           
  2564                           	psect	text15
  2565   0006B2                     __ptext15:
  2566                           	callstack 0
  2567   0006B2                     ___fldiv:
  2568                           	callstack 28
  2569   0006B2  501A               	movf	(___fldiv@b+3)^0,w,c
  2570   0006B4  0B80               	andlw	128
  2571   0006B6  6E27               	movwf	___fldiv@sign^0,c
  2572   0006B8  501A               	movf	(___fldiv@b+3)^0,w,c
  2573   0006BA  241A               	addwf	(___fldiv@b+3)^0,w,c
  2574   0006BC  6E2E               	movwf	___fldiv@bexp^0,c
  2575   0006BE  AE19               	btfss	(___fldiv@b+2)^0,7,c
  2576   0006C0  EF64  F003         	goto	u1021
  2577   0006C4  EF66  F003         	goto	u1020
  2578   0006C8                     u1021:
  2579   0006C8  EF67  F003         	goto	l1576
  2580   0006CC                     u1020:
  2581   0006CC  802E               	bsf	___fldiv@bexp^0,0,c
  2582   0006CE                     l1576:
  2583   0006CE  502E               	movf	___fldiv@bexp^0,w,c
  2584   0006D0  B4D8               	btfsc	status,2,c
  2585   0006D2  EF6D  F003         	goto	u1031
  2586   0006D6  EF6F  F003         	goto	u1030
  2587   0006DA                     u1031:
  2588   0006DA  EF84  F003         	goto	l1586
  2589   0006DE                     u1030:
  2590   0006DE  282E               	incf	___fldiv@bexp^0,w,c
  2591   0006E0  A4D8               	btfss	status,2,c
  2592   0006E2  EF75  F003         	goto	u1041
  2593   0006E6  EF77  F003         	goto	u1040
  2594   0006EA                     u1041:
  2595   0006EA  EF7F  F003         	goto	l1582
  2596   0006EE                     u1040:
  2597   0006EE  0E00               	movlw	0
  2598   0006F0  6E17               	movwf	___fldiv@b^0,c
  2599   0006F2  0E00               	movlw	0
  2600   0006F4  6E18               	movwf	(___fldiv@b+1)^0,c
  2601   0006F6  0E00               	movlw	0
  2602   0006F8  6E19               	movwf	(___fldiv@b+2)^0,c
  2603   0006FA  0E00               	movlw	0
  2604   0006FC  6E1A               	movwf	(___fldiv@b+3)^0,c
  2605   0006FE                     l1582:
  2606   0006FE  8E19               	bsf	(___fldiv@b+2)^0,7,c
  2607   000700  0E00               	movlw	0
  2608   000702  6E1A               	movwf	(___fldiv@b+3)^0,c
  2609   000704  EF8C  F003         	goto	l1588
  2610   000708                     l1586:
  2611   000708  0E00               	movlw	0
  2612   00070A  6E17               	movwf	___fldiv@b^0,c
  2613   00070C  0E00               	movlw	0
  2614   00070E  6E18               	movwf	(___fldiv@b+1)^0,c
  2615   000710  0E00               	movlw	0
  2616   000712  6E19               	movwf	(___fldiv@b+2)^0,c
  2617   000714  0E00               	movlw	0
  2618   000716  6E1A               	movwf	(___fldiv@b+3)^0,c
  2619   000718                     l1588:
  2620   000718  501E               	movf	(___fldiv@a+3)^0,w,c
  2621   00071A  0B80               	andlw	128
  2622   00071C  1A27               	xorwf	___fldiv@sign^0,f,c
  2623   00071E  501E               	movf	(___fldiv@a+3)^0,w,c
  2624   000720  241E               	addwf	(___fldiv@a+3)^0,w,c
  2625   000722  6E2F               	movwf	___fldiv@aexp^0,c
  2626   000724  AE1D               	btfss	(___fldiv@a+2)^0,7,c
  2627   000726  EF97  F003         	goto	u1051
  2628   00072A  EF99  F003         	goto	u1050
  2629   00072E                     u1051:
  2630   00072E  EF9A  F003         	goto	l1596
  2631   000732                     u1050:
  2632   000732  802F               	bsf	___fldiv@aexp^0,0,c
  2633   000734                     l1596:
  2634   000734  502F               	movf	___fldiv@aexp^0,w,c
  2635   000736  B4D8               	btfsc	status,2,c
  2636   000738  EFA0  F003         	goto	u1061
  2637   00073C  EFA2  F003         	goto	u1060
  2638   000740                     u1061:
  2639   000740  EFB7  F003         	goto	l1606
  2640   000744                     u1060:
  2641   000744  282F               	incf	___fldiv@aexp^0,w,c
  2642   000746  A4D8               	btfss	status,2,c
  2643   000748  EFA8  F003         	goto	u1071
  2644   00074C  EFAA  F003         	goto	u1070
  2645   000750                     u1071:
  2646   000750  EFB2  F003         	goto	l1602
  2647   000754                     u1070:
  2648   000754  0E00               	movlw	0
  2649   000756  6E1B               	movwf	___fldiv@a^0,c
  2650   000758  0E00               	movlw	0
  2651   00075A  6E1C               	movwf	(___fldiv@a+1)^0,c
  2652   00075C  0E00               	movlw	0
  2653   00075E  6E1D               	movwf	(___fldiv@a+2)^0,c
  2654   000760  0E00               	movlw	0
  2655   000762  6E1E               	movwf	(___fldiv@a+3)^0,c
  2656   000764                     l1602:
  2657   000764  8E1D               	bsf	(___fldiv@a+2)^0,7,c
  2658   000766  0E00               	movlw	0
  2659   000768  6E1E               	movwf	(___fldiv@a+3)^0,c
  2660   00076A  EFBF  F003         	goto	l1608
  2661   00076E                     l1606:
  2662   00076E  0E00               	movlw	0
  2663   000770  6E1B               	movwf	___fldiv@a^0,c
  2664   000772  0E00               	movlw	0
  2665   000774  6E1C               	movwf	(___fldiv@a+1)^0,c
  2666   000776  0E00               	movlw	0
  2667   000778  6E1D               	movwf	(___fldiv@a+2)^0,c
  2668   00077A  0E00               	movlw	0
  2669   00077C  6E1E               	movwf	(___fldiv@a+3)^0,c
  2670   00077E                     l1608:
  2671   00077E  501B               	movf	___fldiv@a^0,w,c
  2672   000780  101C               	iorwf	(___fldiv@a+1)^0,w,c
  2673   000782  101D               	iorwf	(___fldiv@a+2)^0,w,c
  2674   000784  101E               	iorwf	(___fldiv@a+3)^0,w,c
  2675   000786  A4D8               	btfss	status,2,c
  2676   000788  EFC8  F003         	goto	u1081
  2677   00078C  EFCA  F003         	goto	u1080
  2678   000790                     u1081:
  2679   000790  EFE2  F003         	goto	l1620
  2680   000794                     u1080:
  2681   000794  0E00               	movlw	0
  2682   000796  6E17               	movwf	___fldiv@b^0,c
  2683   000798  0E00               	movlw	0
  2684   00079A  6E18               	movwf	(___fldiv@b+1)^0,c
  2685   00079C  0E00               	movlw	0
  2686   00079E  6E19               	movwf	(___fldiv@b+2)^0,c
  2687   0007A0  0E00               	movlw	0
  2688   0007A2  6E1A               	movwf	(___fldiv@b+3)^0,c
  2689   0007A4  0E80               	movlw	128
  2690   0007A6  1219               	iorwf	(___fldiv@b+2)^0,f,c
  2691   0007A8  0E7F               	movlw	127
  2692   0007AA  121A               	iorwf	(___fldiv@b+3)^0,f,c
  2693   0007AC                     l1614:
  2694   0007AC  5027               	movf	___fldiv@sign^0,w,c
  2695   0007AE  121A               	iorwf	(___fldiv@b+3)^0,f,c
  2696   0007B0  C017  F017         	movff	___fldiv@b,?___fldiv
  2697   0007B4  C018  F018         	movff	___fldiv@b+1,?___fldiv+1
  2698   0007B8  C019  F019         	movff	___fldiv@b+2,?___fldiv+2
  2699   0007BC  C01A  F01A         	movff	___fldiv@b+3,?___fldiv+3
  2700   0007C0  EF25  F005         	goto	l823
  2701   0007C4                     l1620:
  2702   0007C4  502E               	movf	___fldiv@bexp^0,w,c
  2703   0007C6  A4D8               	btfss	status,2,c
  2704   0007C8  EFE8  F003         	goto	u1091
  2705   0007CC  EFEA  F003         	goto	u1090
  2706   0007D0                     u1091:
  2707   0007D0  EFF4  F003         	goto	l1628
  2708   0007D4                     u1090:
  2709   0007D4  0E00               	movlw	0
  2710   0007D6  6E17               	movwf	?___fldiv^0,c
  2711   0007D8  0E00               	movlw	0
  2712   0007DA  6E18               	movwf	(?___fldiv+1)^0,c
  2713   0007DC  0E00               	movlw	0
  2714   0007DE  6E19               	movwf	(?___fldiv+2)^0,c
  2715   0007E0  0E00               	movlw	0
  2716   0007E2  6E1A               	movwf	(?___fldiv+3)^0,c
  2717   0007E4  EF25  F005         	goto	l823
  2718   0007E8                     l1628:
  2719   0007E8  502F               	movf	___fldiv@aexp^0,w,c
  2720   0007EA  C02E  F01F         	movff	___fldiv@bexp,??___fldiv
  2721   0007EE  6A20               	clrf	(??___fldiv+1)^0,c
  2722   0007F0  5E1F               	subwf	??___fldiv^0,f,c
  2723   0007F2  0E00               	movlw	0
  2724   0007F4  5A20               	subwfb	(??___fldiv+1)^0,f,c
  2725   0007F6  0E7F               	movlw	127
  2726   0007F8  241F               	addwf	??___fldiv^0,w,c
  2727   0007FA  6E28               	movwf	___fldiv@new_exp^0,c
  2728   0007FC  0E00               	movlw	0
  2729   0007FE  2020               	addwfc	(??___fldiv+1)^0,w,c
  2730   000800  6E29               	movwf	(___fldiv@new_exp+1)^0,c
  2731   000802  C017  F023         	movff	___fldiv@b,___fldiv@rem
  2732   000806  C018  F024         	movff	___fldiv@b+1,___fldiv@rem+1
  2733   00080A  C019  F025         	movff	___fldiv@b+2,___fldiv@rem+2
  2734   00080E  C01A  F026         	movff	___fldiv@b+3,___fldiv@rem+3
  2735   000812  0E00               	movlw	0
  2736   000814  6E17               	movwf	___fldiv@b^0,c
  2737   000816  0E00               	movlw	0
  2738   000818  6E18               	movwf	(___fldiv@b+1)^0,c
  2739   00081A  0E00               	movlw	0
  2740   00081C  6E19               	movwf	(___fldiv@b+2)^0,c
  2741   00081E  0E00               	movlw	0
  2742   000820  6E1A               	movwf	(___fldiv@b+3)^0,c
  2743   000822  0E00               	movlw	0
  2744   000824  6E2A               	movwf	___fldiv@grs^0,c
  2745   000826  0E00               	movlw	0
  2746   000828  6E2B               	movwf	(___fldiv@grs+1)^0,c
  2747   00082A  0E00               	movlw	0
  2748   00082C  6E2C               	movwf	(___fldiv@grs+2)^0,c
  2749   00082E  0E00               	movlw	0
  2750   000830  6E2D               	movwf	(___fldiv@grs+3)^0,c
  2751   000832  0E00               	movlw	0
  2752   000834  6E2F               	movwf	___fldiv@aexp^0,c
  2753   000836  EF55  F004         	goto	l825
  2754   00083A                     l1638:
  2755   00083A  502F               	movf	___fldiv@aexp^0,w,c
  2756   00083C  B4D8               	btfsc	status,2,c
  2757   00083E  EF23  F004         	goto	u1101
  2758   000842  EF25  F004         	goto	u1100
  2759   000846                     u1101:
  2760   000846  EF3C  F004         	goto	l1646
  2761   00084A                     u1100:
  2762   00084A  90D8               	bcf	status,0,c
  2763   00084C  3623               	rlcf	___fldiv@rem^0,f,c
  2764   00084E  3624               	rlcf	(___fldiv@rem+1)^0,f,c
  2765   000850  3625               	rlcf	(___fldiv@rem+2)^0,f,c
  2766   000852  3626               	rlcf	(___fldiv@rem+3)^0,f,c
  2767   000854  90D8               	bcf	status,0,c
  2768   000856  3617               	rlcf	___fldiv@b^0,f,c
  2769   000858  3618               	rlcf	(___fldiv@b+1)^0,f,c
  2770   00085A  3619               	rlcf	(___fldiv@b+2)^0,f,c
  2771   00085C  361A               	rlcf	(___fldiv@b+3)^0,f,c
  2772   00085E  AE2D               	btfss	(___fldiv@grs+3)^0,7,c
  2773   000860  EF34  F004         	goto	u1111
  2774   000864  EF36  F004         	goto	u1110
  2775   000868                     u1111:
  2776   000868  EF37  F004         	goto	l828
  2777   00086C                     u1110:
  2778   00086C  8017               	bsf	___fldiv@b^0,0,c
  2779   00086E                     l828:
  2780   00086E  90D8               	bcf	status,0,c
  2781   000870  362A               	rlcf	___fldiv@grs^0,f,c
  2782   000872  362B               	rlcf	(___fldiv@grs+1)^0,f,c
  2783   000874  362C               	rlcf	(___fldiv@grs+2)^0,f,c
  2784   000876  362D               	rlcf	(___fldiv@grs+3)^0,f,c
  2785   000878                     l1646:
  2786   000878  501B               	movf	___fldiv@a^0,w,c
  2787   00087A  5C23               	subwf	___fldiv@rem^0,w,c
  2788   00087C  501C               	movf	(___fldiv@a+1)^0,w,c
  2789   00087E  5824               	subwfb	(___fldiv@rem+1)^0,w,c
  2790   000880  501D               	movf	(___fldiv@a+2)^0,w,c
  2791   000882  5825               	subwfb	(___fldiv@rem+2)^0,w,c
  2792   000884  501E               	movf	(___fldiv@a+3)^0,w,c
  2793   000886  5826               	subwfb	(___fldiv@rem+3)^0,w,c
  2794   000888  A0D8               	btfss	status,0,c
  2795   00088A  EF49  F004         	goto	u1121
  2796   00088E  EF4B  F004         	goto	u1120
  2797   000892                     u1121:
  2798   000892  EF54  F004         	goto	l1652
  2799   000896                     u1120:
  2800   000896  8C2D               	bsf	(___fldiv@grs+3)^0,6,c
  2801   000898  501B               	movf	___fldiv@a^0,w,c
  2802   00089A  5E23               	subwf	___fldiv@rem^0,f,c
  2803   00089C  501C               	movf	(___fldiv@a+1)^0,w,c
  2804   00089E  5A24               	subwfb	(___fldiv@rem+1)^0,f,c
  2805   0008A0  501D               	movf	(___fldiv@a+2)^0,w,c
  2806   0008A2  5A25               	subwfb	(___fldiv@rem+2)^0,f,c
  2807   0008A4  501E               	movf	(___fldiv@a+3)^0,w,c
  2808   0008A6  5A26               	subwfb	(___fldiv@rem+3)^0,f,c
  2809   0008A8                     l1652:
  2810   0008A8  2A2F               	incf	___fldiv@aexp^0,f,c
  2811   0008AA                     l825:
  2812   0008AA  0E19               	movlw	25
  2813   0008AC  642F               	cpfsgt	___fldiv@aexp^0,c
  2814   0008AE  EF5B  F004         	goto	u1131
  2815   0008B2  EF5D  F004         	goto	u1130
  2816   0008B6                     u1131:
  2817   0008B6  EF1D  F004         	goto	l1638
  2818   0008BA                     u1130:
  2819   0008BA  5023               	movf	___fldiv@rem^0,w,c
  2820   0008BC  1024               	iorwf	(___fldiv@rem+1)^0,w,c
  2821   0008BE  1025               	iorwf	(___fldiv@rem+2)^0,w,c
  2822   0008C0  1026               	iorwf	(___fldiv@rem+3)^0,w,c
  2823   0008C2  B4D8               	btfsc	status,2,c
  2824   0008C4  EF66  F004         	goto	u1141
  2825   0008C8  EF68  F004         	goto	u1140
  2826   0008CC                     u1141:
  2827   0008CC  EF80  F004         	goto	l1664
  2828   0008D0                     u1140:
  2829   0008D0  802A               	bsf	___fldiv@grs^0,0,c
  2830   0008D2  EF80  F004         	goto	l1664
  2831   0008D6                     l1658:
  2832   0008D6  90D8               	bcf	status,0,c
  2833   0008D8  3617               	rlcf	___fldiv@b^0,f,c
  2834   0008DA  3618               	rlcf	(___fldiv@b+1)^0,f,c
  2835   0008DC  3619               	rlcf	(___fldiv@b+2)^0,f,c
  2836   0008DE  361A               	rlcf	(___fldiv@b+3)^0,f,c
  2837   0008E0  AE2D               	btfss	(___fldiv@grs+3)^0,7,c
  2838   0008E2  EF75  F004         	goto	u1151
  2839   0008E6  EF77  F004         	goto	u1150
  2840   0008EA                     u1151:
  2841   0008EA  EF78  F004         	goto	l834
  2842   0008EE                     u1150:
  2843   0008EE  8017               	bsf	___fldiv@b^0,0,c
  2844   0008F0                     l834:
  2845   0008F0  90D8               	bcf	status,0,c
  2846   0008F2  362A               	rlcf	___fldiv@grs^0,f,c
  2847   0008F4  362B               	rlcf	(___fldiv@grs+1)^0,f,c
  2848   0008F6  362C               	rlcf	(___fldiv@grs+2)^0,f,c
  2849   0008F8  362D               	rlcf	(___fldiv@grs+3)^0,f,c
  2850   0008FA  0628               	decf	___fldiv@new_exp^0,f,c
  2851   0008FC  A0D8               	btfss	status,0,c
  2852   0008FE  0629               	decf	(___fldiv@new_exp+1)^0,f,c
  2853   000900                     l1664:
  2854   000900  AE19               	btfss	(___fldiv@b+2)^0,7,c
  2855   000902  EF85  F004         	goto	u1161
  2856   000906  EF87  F004         	goto	u1160
  2857   00090A                     u1161:
  2858   00090A  EF6B  F004         	goto	l1658
  2859   00090E                     u1160:
  2860   00090E  0E00               	movlw	0
  2861   000910  6E2F               	movwf	___fldiv@aexp^0,c
  2862   000912  AE2D               	btfss	(___fldiv@grs+3)^0,7,c
  2863   000914  EF8E  F004         	goto	u1171
  2864   000918  EF90  F004         	goto	u1170
  2865   00091C                     u1171:
  2866   00091C  EFB4  F004         	goto	l836
  2867   000920                     u1170:
  2868   000920  0EFF               	movlw	255
  2869   000922  142A               	andwf	___fldiv@grs^0,w,c
  2870   000924  6E1F               	movwf	??___fldiv^0,c
  2871   000926  0EFF               	movlw	255
  2872   000928  142B               	andwf	(___fldiv@grs+1)^0,w,c
  2873   00092A  6E20               	movwf	(??___fldiv+1)^0,c
  2874   00092C  0EFF               	movlw	255
  2875   00092E  142C               	andwf	(___fldiv@grs+2)^0,w,c
  2876   000930  6E21               	movwf	(??___fldiv+2)^0,c
  2877   000932  0E7F               	movlw	127
  2878   000934  142D               	andwf	(___fldiv@grs+3)^0,w,c
  2879   000936  6E22               	movwf	(??___fldiv+3)^0,c
  2880   000938  501F               	movf	??___fldiv^0,w,c
  2881   00093A  1020               	iorwf	(??___fldiv+1)^0,w,c
  2882   00093C  1021               	iorwf	(??___fldiv+2)^0,w,c
  2883   00093E  1022               	iorwf	(??___fldiv+3)^0,w,c
  2884   000940  B4D8               	btfsc	status,2,c
  2885   000942  EFA5  F004         	goto	u1181
  2886   000946  EFA7  F004         	goto	u1180
  2887   00094A                     u1181:
  2888   00094A  EFAB  F004         	goto	l837
  2889   00094E                     u1180:
  2890   00094E                     l1672:
  2891   00094E  0E01               	movlw	1
  2892   000950  6E2F               	movwf	___fldiv@aexp^0,c
  2893   000952  EFB4  F004         	goto	l836
  2894   000956                     l837:
  2895   000956  A017               	btfss	___fldiv@b^0,0,c
  2896   000958  EFB0  F004         	goto	u1191
  2897   00095C  EFB2  F004         	goto	u1190
  2898   000960                     u1191:
  2899   000960  EFB4  F004         	goto	l836
  2900   000964                     u1190:
  2901   000964  EFA7  F004         	goto	l1672
  2902   000968                     l836:
  2903   000968  502F               	movf	___fldiv@aexp^0,w,c
  2904   00096A  B4D8               	btfsc	status,2,c
  2905   00096C  EFBA  F004         	goto	u1201
  2906   000970  EFBC  F004         	goto	u1200
  2907   000974                     u1201:
  2908   000974  EFE0  F004         	goto	l1684
  2909   000978                     u1200:
  2910   000978  0E01               	movlw	1
  2911   00097A  2617               	addwf	___fldiv@b^0,f,c
  2912   00097C  0E00               	movlw	0
  2913   00097E  2218               	addwfc	(___fldiv@b+1)^0,f,c
  2914   000980  2219               	addwfc	(___fldiv@b+2)^0,f,c
  2915   000982  221A               	addwfc	(___fldiv@b+3)^0,f,c
  2916   000984  A01A               	btfss	(___fldiv@b+3)^0,0,c
  2917   000986  EFC7  F004         	goto	u1211
  2918   00098A  EFC9  F004         	goto	u1210
  2919   00098E                     u1211:
  2920   00098E  EFE0  F004         	goto	l1684
  2921   000992                     u1210:
  2922   000992  C017  F01F         	movff	___fldiv@b,??___fldiv
  2923   000996  C018  F020         	movff	___fldiv@b+1,??___fldiv+1
  2924   00099A  C019  F021         	movff	___fldiv@b+2,??___fldiv+2
  2925   00099E  C01A  F022         	movff	___fldiv@b+3,??___fldiv+3
  2926   0009A2  3422               	rlcf	(??___fldiv+3)^0,w,c
  2927   0009A4  3222               	rrcf	(??___fldiv+3)^0,f,c
  2928   0009A6  3221               	rrcf	(??___fldiv+2)^0,f,c
  2929   0009A8  3220               	rrcf	(??___fldiv+1)^0,f,c
  2930   0009AA  321F               	rrcf	??___fldiv^0,f,c
  2931   0009AC  C01F  F017         	movff	??___fldiv,___fldiv@b
  2932   0009B0  C020  F018         	movff	??___fldiv+1,___fldiv@b+1
  2933   0009B4  C021  F019         	movff	??___fldiv+2,___fldiv@b+2
  2934   0009B8  C022  F01A         	movff	??___fldiv+3,___fldiv@b+3
  2935   0009BC  4A28               	infsnz	___fldiv@new_exp^0,f,c
  2936   0009BE  2A29               	incf	(___fldiv@new_exp+1)^0,f,c
  2937   0009C0                     l1684:
  2938   0009C0  BE29               	btfsc	(___fldiv@new_exp+1)^0,7,c
  2939   0009C2  EFEB  F004         	goto	u1221
  2940   0009C6  5029               	movf	(___fldiv@new_exp+1)^0,w,c
  2941   0009C8  E108               	bnz	u1220
  2942   0009CA  2828               	incf	___fldiv@new_exp^0,w,c
  2943   0009CC  A0D8               	btfss	status,0,c
  2944   0009CE  EFEB  F004         	goto	u1221
  2945   0009D2  EFED  F004         	goto	u1220
  2946   0009D6                     u1221:
  2947   0009D6  EFF8  F004         	goto	l1688
  2948   0009DA                     u1220:
  2949   0009DA  0E00               	movlw	0
  2950   0009DC  6E29               	movwf	(___fldiv@new_exp+1)^0,c
  2951   0009DE  6828               	setf	___fldiv@new_exp^0,c
  2952   0009E0  0E00               	movlw	0
  2953   0009E2  6E17               	movwf	___fldiv@b^0,c
  2954   0009E4  0E00               	movlw	0
  2955   0009E6  6E18               	movwf	(___fldiv@b+1)^0,c
  2956   0009E8  0E00               	movlw	0
  2957   0009EA  6E19               	movwf	(___fldiv@b+2)^0,c
  2958   0009EC  0E00               	movlw	0
  2959   0009EE  6E1A               	movwf	(___fldiv@b+3)^0,c
  2960   0009F0                     l1688:
  2961   0009F0  BE29               	btfsc	(___fldiv@new_exp+1)^0,7,c
  2962   0009F2  EF05  F005         	goto	u1230
  2963   0009F6  5029               	movf	(___fldiv@new_exp+1)^0,w,c
  2964   0009F8  E106               	bnz	u1231
  2965   0009FA  0428               	decf	___fldiv@new_exp^0,w,c
  2966   0009FC  B0D8               	btfsc	status,0,c
  2967   0009FE  EF03  F005         	goto	u1231
  2968   000A02  EF05  F005         	goto	u1230
  2969   000A06                     u1231:
  2970   000A06  EF13  F005         	goto	l1692
  2971   000A0A                     u1230:
  2972   000A0A  0E00               	movlw	0
  2973   000A0C  6E29               	movwf	(___fldiv@new_exp+1)^0,c
  2974   000A0E  0E00               	movlw	0
  2975   000A10  6E28               	movwf	___fldiv@new_exp^0,c
  2976   000A12  0E00               	movlw	0
  2977   000A14  6E17               	movwf	___fldiv@b^0,c
  2978   000A16  0E00               	movlw	0
  2979   000A18  6E18               	movwf	(___fldiv@b+1)^0,c
  2980   000A1A  0E00               	movlw	0
  2981   000A1C  6E19               	movwf	(___fldiv@b+2)^0,c
  2982   000A1E  0E00               	movlw	0
  2983   000A20  6E1A               	movwf	(___fldiv@b+3)^0,c
  2984   000A22  0E00               	movlw	0
  2985   000A24  6E27               	movwf	___fldiv@sign^0,c
  2986   000A26                     l1692:
  2987   000A26  C028  F02E         	movff	___fldiv@new_exp,___fldiv@bexp
  2988   000A2A  A02E               	btfss	___fldiv@bexp^0,0,c
  2989   000A2C  EF1A  F005         	goto	u1241
  2990   000A30  EF1C  F005         	goto	u1240
  2991   000A34                     u1241:
  2992   000A34  EF1F  F005         	goto	l1698
  2993   000A38                     u1240:
  2994   000A38  8E19               	bsf	(___fldiv@b+2)^0,7,c
  2995   000A3A  EF20  F005         	goto	l1700
  2996   000A3E                     l1698:
  2997   000A3E  9E19               	bcf	(___fldiv@b+2)^0,7,c
  2998   000A40                     l1700:
  2999   000A40  90D8               	bcf	status,0,c
  3000   000A42  302E               	rrcf	___fldiv@bexp^0,w,c
  3001   000A44  6E1A               	movwf	(___fldiv@b+3)^0,c
  3002   000A46  EFD6  F003         	goto	l1614
  3003   000A4A                     l823:
  3004   000A4A  0012               	return		;funcret
  3005   000A4C                     __end_of___fldiv:
  3006                           	callstack 0
  3007                           
  3008 ;; *************** function _display_signature *****************
  3009 ;; Defined at:
  3010 ;;		line 21 in file "car_black_box.c"
  3011 ;; Parameters:    Size  Location     Type
  3012 ;;		None
  3013 ;; Auto vars:     Size  Location     Type
  3014 ;;  gear_key        2    6[COMRAM] unsigned int 
  3015 ;; Return value:  Size  Location     Type
  3016 ;;                  1    wreg      void 
  3017 ;; Registers used:
  3018 ;;		wreg, fsr2l, fsr2h, status,2, status,0, tblptrl, tblptrh, tblptru, cstack
  3019 ;; Tracked objects:
  3020 ;;		On entry : 0/0
  3021 ;;		On exit  : 0/0
  3022 ;;		Unchanged: 0/0
  3023 ;; Data sizes:     COMRAM   BANK0   BANK1   BANK2   BANK3   BANK4   BANK5
  3024 ;;      Params:         0       0       0       0       0       0       0
  3025 ;;      Locals:         2       0       0       0       0       0       0
  3026 ;;      Temps:          1       0       0       0       0       0       0
  3027 ;;      Totals:         3       0       0       0       0       0       0
  3028 ;;Total ram usage:        3 bytes
  3029 ;; Hardware stack levels used: 1
  3030 ;; Hardware stack levels required when called: 2
  3031 ;; This function calls:
  3032 ;;		_clcd_print
  3033 ;;		_read_matrix_keypad
  3034 ;; This function is called by:
  3035 ;;		_display_default_screen
  3036 ;; This function uses a non-reentrant model
  3037 ;;
  3038                           
  3039                           	psect	text16
  3040   0010F8                     __ptext16:
  3041                           	callstack 0
  3042   0010F8                     _display_signature:
  3043                           	callstack 27
  3044   0010F8                     
  3045                           ;car_black_box.c: 23:     unsigned int gear_key;;car_black_box.c: 24:     gear_key = rea
      +                          d_matrix_keypad(1);
  3046   0010F8  0E01               	movlw	1
  3047   0010FA  ECDE  F009         	call	_read_matrix_keypad
  3048   0010FE  6E06               	movwf	??_display_signature^0,c
  3049   001100  5006               	movf	??_display_signature^0,w,c
  3050   001102  6E07               	movwf	display_signature@gear_key^0,c
  3051   001104  6A08               	clrf	(display_signature@gear_key+1)^0,c
  3052   001106                     
  3053                           ;car_black_box.c: 25:     static int gear = 7;;car_black_box.c: 26:     if(gear_key == 1
      +                          )
  3054   001106  0407               	decf	display_signature@gear_key^0,w,c
  3055   001108  1008               	iorwf	(display_signature@gear_key+1)^0,w,c
  3056   00110A  A4D8               	btfss	status,2,c
  3057   00110C  EF8A  F008         	goto	u1481
  3058   001110  EF8C  F008         	goto	u1480
  3059   001114                     u1481:
  3060   001114  EF92  F008         	goto	l1878
  3061   001118                     u1480:
  3062   001118                     
  3063                           ;car_black_box.c: 27:     {;car_black_box.c: 28:         gear = 0;
  3064   001118  0E00               	movlw	0
  3065   00111A  6E52               	movwf	(display_signature@gear+1)^0,c
  3066   00111C  0E00               	movlw	0
  3067   00111E  6E51               	movwf	display_signature@gear^0,c
  3068                           
  3069                           ;car_black_box.c: 29:     }
  3070   001120  EFDB  F008         	goto	l1894
  3071   001124                     l1878:
  3072   001124  0E02               	movlw	2
  3073   001126  1807               	xorwf	display_signature@gear_key^0,w,c
  3074   001128  1008               	iorwf	(display_signature@gear_key+1)^0,w,c
  3075   00112A  A4D8               	btfss	status,2,c
  3076   00112C  EF9A  F008         	goto	u1491
  3077   001130  EF9C  F008         	goto	u1490
  3078   001134                     u1491:
  3079   001134  EFBE  F008         	goto	l1888
  3080   001138                     u1490:
  3081   001138                     
  3082                           ;car_black_box.c: 31:     {;car_black_box.c: 32:         if(gear < 6)
  3083   001138  BE52               	btfsc	(display_signature@gear+1)^0,7,c
  3084   00113A  EFAA  F008         	goto	u1500
  3085   00113E  5052               	movf	(display_signature@gear+1)^0,w,c
  3086   001140  E107               	bnz	u1501
  3087   001142  0E06               	movlw	6
  3088   001144  5C51               	subwf	display_signature@gear^0,w,c
  3089   001146  B0D8               	btfsc	status,0,c
  3090   001148  EFA8  F008         	goto	u1501
  3091   00114C  EFAA  F008         	goto	u1500
  3092   001150                     u1501:
  3093   001150  EFAE  F008         	goto	l1884
  3094   001154                     u1500:
  3095   001154                     
  3096                           ;car_black_box.c: 33:         {;car_black_box.c: 34:             gear++;
  3097   001154  4A51               	infsnz	display_signature@gear^0,f,c
  3098   001156  2A52               	incf	(display_signature@gear+1)^0,f,c
  3099                           
  3100                           ;car_black_box.c: 35:         }
  3101   001158  EFDB  F008         	goto	l1894
  3102   00115C                     l1884:
  3103   00115C  0E07               	movlw	7
  3104   00115E  1851               	xorwf	display_signature@gear^0,w,c
  3105   001160  1052               	iorwf	(display_signature@gear+1)^0,w,c
  3106   001162  A4D8               	btfss	status,2,c
  3107   001164  EFB6  F008         	goto	u1511
  3108   001168  EFB8  F008         	goto	u1510
  3109   00116C                     u1511:
  3110   00116C  EFDB  F008         	goto	l135
  3111   001170                     u1510:
  3112   001170                     
  3113                           ;car_black_box.c: 37:         {;car_black_box.c: 38:             gear =1;
  3114   001170  0E00               	movlw	0
  3115   001172  6E52               	movwf	(display_signature@gear+1)^0,c
  3116   001174  0E01               	movlw	1
  3117   001176  6E51               	movwf	display_signature@gear^0,c
  3118   001178  EFDB  F008         	goto	l1894
  3119   00117C                     l1888:
  3120   00117C  0E03               	movlw	3
  3121   00117E  1807               	xorwf	display_signature@gear_key^0,w,c
  3122   001180  1008               	iorwf	(display_signature@gear_key+1)^0,w,c
  3123   001182  A4D8               	btfss	status,2,c
  3124   001184  EFC6  F008         	goto	u1521
  3125   001188  EFC8  F008         	goto	u1520
  3126   00118C                     u1521:
  3127   00118C  EFDB  F008         	goto	l1894
  3128   001190                     u1520:
  3129   001190                     
  3130                           ;car_black_box.c: 42:     {;car_black_box.c: 43:         if(gear > 1)
  3131   001190  BE52               	btfsc	(display_signature@gear+1)^0,7,c
  3132   001192  EFD4  F008         	goto	u1531
  3133   001196  5052               	movf	(display_signature@gear+1)^0,w,c
  3134   001198  E109               	bnz	u1530
  3135   00119A  0E02               	movlw	2
  3136   00119C  5C51               	subwf	display_signature@gear^0,w,c
  3137   00119E  A0D8               	btfss	status,0,c
  3138   0011A0  EFD4  F008         	goto	u1531
  3139   0011A4  EFD6  F008         	goto	u1530
  3140   0011A8                     u1531:
  3141   0011A8  EFDB  F008         	goto	l135
  3142   0011AC                     u1530:
  3143   0011AC                     
  3144                           ;car_black_box.c: 44:         {;car_black_box.c: 45:             gear--;
  3145   0011AC  0651               	decf	display_signature@gear^0,f,c
  3146   0011AE  A0D8               	btfss	status,0,c
  3147   0011B0  0652               	decf	(display_signature@gear+1)^0,f,c
  3148   0011B2  EFDB  F008         	goto	l1894
  3149   0011B6                     l135:
  3150   0011B6                     l1894:
  3151                           
  3152                           ;car_black_box.c: 48:     clcd_print(signature[gear],(0xC0 + (10)));
  3153   0011B6  90D8               	bcf	status,0,c
  3154   0011B8  3451               	rlcf	display_signature@gear^0,w,c
  3155   0011BA  6ED9               	movwf	fsr2l,c
  3156   0011BC  3452               	rlcf	(display_signature@gear+1)^0,w,c
  3157   0011BE  6EDA               	movwf	fsr2h,c
  3158   0011C0  0E3D               	movlw	low _signature
  3159   0011C2  26D9               	addwf	fsr2l,f,c
  3160   0011C4  0E00               	movlw	high _signature
  3161   0011C6  22DA               	addwfc	fsr2h,f,c
  3162   0011C8  CFDE F003          	movff	postinc2,clcd_print@data
  3163   0011CC  CFDD F004          	movff	postdec2,clcd_print@data+1
  3164   0011D0  0ECA               	movlw	202
  3165   0011D2  6E05               	movwf	clcd_print@addr^0,c
  3166   0011D4  ECAA  F00A         	call	_clcd_print	;wreg free
  3167   0011D8  0012               	return		;funcret
  3168   0011DA                     __end_of_display_signature:
  3169                           	callstack 0
  3170                           
  3171 ;; *************** function _read_matrix_keypad *****************
  3172 ;; Defined at:
  3173 ;;		line 132 in file "car_black_box.c"
  3174 ;; Parameters:    Size  Location     Type
  3175 ;;  detection       1    wreg     unsigned char 
  3176 ;; Auto vars:     Size  Location     Type
  3177 ;;  detection       1    0[COMRAM] unsigned char 
  3178 ;;  key             1    1[COMRAM] unsigned char 
  3179 ;; Return value:  Size  Location     Type
  3180 ;;                  1    wreg      unsigned char 
  3181 ;; Registers used:
  3182 ;;		wreg, status,2, status,0, cstack
  3183 ;; Tracked objects:
  3184 ;;		On entry : 0/0
  3185 ;;		On exit  : 0/0
  3186 ;;		Unchanged: 0/0
  3187 ;; Data sizes:     COMRAM   BANK0   BANK1   BANK2   BANK3   BANK4   BANK5
  3188 ;;      Params:         0       0       0       0       0       0       0
  3189 ;;      Locals:         2       0       0       0       0       0       0
  3190 ;;      Temps:          0       0       0       0       0       0       0
  3191 ;;      Totals:         2       0       0       0       0       0       0
  3192 ;;Total ram usage:        2 bytes
  3193 ;; Hardware stack levels used: 1
  3194 ;; Hardware stack levels required when called: 1
  3195 ;; This function calls:
  3196 ;;		_scan_key
  3197 ;; This function is called by:
  3198 ;;		_main
  3199 ;;		_display_signature
  3200 ;;		_login_screen
  3201 ;; This function uses a non-reentrant model
  3202 ;;
  3203                           
  3204                           	psect	text17
  3205   0013BC                     __ptext17:
  3206                           	callstack 0
  3207   0013BC                     _read_matrix_keypad:
  3208                           	callstack 29
  3209                           
  3210                           ;incstack = 0
  3211                           ;read_matrix_keypad@detection stored from wreg
  3212   0013BC  6E01               	movwf	read_matrix_keypad@detection^0,c
  3213   0013BE                     
  3214                           ;car_black_box.c: 132: unsigned char read_matrix_keypad(char detection);car_black_box.c:
      +                           133: {;car_black_box.c: 134:     unsigned char key;;car_black_box.c: 135:     if(detect
      +                          ion ==0)
  3215   0013BE  5001               	movf	read_matrix_keypad@detection^0,w,c
  3216   0013C0  A4D8               	btfss	status,2,c
  3217   0013C2  EFE5  F009         	goto	u161
  3218   0013C6  EFE7  F009         	goto	u160
  3219   0013CA                     u161:
  3220   0013CA  EFEB  F009         	goto	l1014
  3221   0013CE                     u160:
  3222   0013CE                     
  3223                           ;car_black_box.c: 136:     {;car_black_box.c: 137:         return scan_key();
  3224   0013CE  EC75  F007         	call	_scan_key	;wreg free
  3225   0013D2  EF18  F00A         	goto	l162
  3226   0013D6                     l1014:
  3227   0013D6  0401               	decf	read_matrix_keypad@detection^0,w,c
  3228   0013D8  A4D8               	btfss	status,2,c
  3229   0013DA  EFF1  F009         	goto	u171
  3230   0013DE  EFF3  F009         	goto	u170
  3231   0013E2                     u171:
  3232   0013E2  EF17  F00A         	goto	l1032
  3233   0013E6                     u170:
  3234   0013E6                     
  3235                           ;car_black_box.c: 140:     {;car_black_box.c: 141:         key = scan_key();
  3236   0013E6  EC75  F007         	call	_scan_key	;wreg free
  3237   0013EA  6E02               	movwf	read_matrix_keypad@key^0,c
  3238   0013EC                     
  3239                           ;car_black_box.c: 142:         static unsigned char once =1;;car_black_box.c: 143:      
      +                             if(key != 0xFF && once)
  3240   0013EC  2802               	incf	read_matrix_keypad@key^0,w,c
  3241   0013EE  B4D8               	btfsc	status,2,c
  3242   0013F0  EFFC  F009         	goto	u181
  3243   0013F4  EFFE  F009         	goto	u180
  3244   0013F8                     u181:
  3245   0013F8  EF0B  F00A         	goto	l1028
  3246   0013FC                     u180:
  3247   0013FC  5053               	movf	read_matrix_keypad@once^0,w,c
  3248   0013FE  B4D8               	btfsc	status,2,c
  3249   001400  EF04  F00A         	goto	u191
  3250   001404  EF06  F00A         	goto	u190
  3251   001408                     u191:
  3252   001408  EF0B  F00A         	goto	l1028
  3253   00140C                     u190:
  3254   00140C                     
  3255                           ;car_black_box.c: 144:         {;car_black_box.c: 145:             once =0;
  3256   00140C  0E00               	movlw	0
  3257   00140E  6E53               	movwf	read_matrix_keypad@once^0,c
  3258                           
  3259                           ;car_black_box.c: 146:             return key;
  3260   001410  5002               	movf	read_matrix_keypad@key^0,w,c
  3261   001412  EF18  F00A         	goto	l162
  3262   001416                     l1028:
  3263   001416  2802               	incf	read_matrix_keypad@key^0,w,c
  3264   001418  A4D8               	btfss	status,2,c
  3265   00141A  EF11  F00A         	goto	u201
  3266   00141E  EF13  F00A         	goto	u200
  3267   001422                     u201:
  3268   001422  EF17  F00A         	goto	l164
  3269   001426                     u200:
  3270   001426                     
  3271                           ;car_black_box.c: 149:             once =1;
  3272   001426  0E01               	movlw	1
  3273   001428  6E53               	movwf	read_matrix_keypad@once^0,c
  3274   00142A  EF17  F00A         	goto	l1032
  3275   00142E                     l164:
  3276   00142E                     l1032:
  3277                           
  3278                           ;car_black_box.c: 151:     return 0xFF;
  3279   00142E  0EFF               	movlw	255
  3280   001430                     l162:
  3281   001430  0012               	return		;funcret
  3282   001432                     __end_of_read_matrix_keypad:
  3283                           	callstack 0
  3284                           
  3285 ;; *************** function _scan_key *****************
  3286 ;; Defined at:
  3287 ;;		line 155 in file "car_black_box.c"
  3288 ;; Parameters:    Size  Location     Type
  3289 ;;		None
  3290 ;; Auto vars:     Size  Location     Type
  3291 ;;		None
  3292 ;; Return value:  Size  Location     Type
  3293 ;;                  1    wreg      unsigned char 
  3294 ;; Registers used:
  3295 ;;		wreg
  3296 ;; Tracked objects:
  3297 ;;		On entry : 0/0
  3298 ;;		On exit  : 0/0
  3299 ;;		Unchanged: 0/0
  3300 ;; Data sizes:     COMRAM   BANK0   BANK1   BANK2   BANK3   BANK4   BANK5
  3301 ;;      Params:         0       0       0       0       0       0       0
  3302 ;;      Locals:         0       0       0       0       0       0       0
  3303 ;;      Temps:          0       0       0       0       0       0       0
  3304 ;;      Totals:         0       0       0       0       0       0       0
  3305 ;;Total ram usage:        0 bytes
  3306 ;; Hardware stack levels used: 1
  3307 ;; This function calls:
  3308 ;;		Nothing
  3309 ;; This function is called by:
  3310 ;;		_read_matrix_keypad
  3311 ;; This function uses a non-reentrant model
  3312 ;;
  3313                           
  3314                           	psect	text18
  3315   000EEA                     __ptext18:
  3316                           	callstack 0
  3317   000EEA                     _scan_key:
  3318                           	callstack 29
  3319   000EEA                     
  3320                           ;car_black_box.c: 157:     RB5=0;
  3321   000EEA  9A81               	bcf	3969,5,c	;volatile
  3322                           
  3323                           ;car_black_box.c: 158:     RB6=1;
  3324   000EEC  8C81               	bsf	3969,6,c	;volatile
  3325                           
  3326                           ;car_black_box.c: 159:     RB7=1;
  3327   000EEE  8E81               	bsf	3969,7,c	;volatile
  3328                           
  3329                           ;car_black_box.c: 160:     if(RB1 == 0) return 1;
  3330   000EF0  B281               	btfsc	3969,1,c	;volatile
  3331   000EF2  EF7D  F007         	goto	u41
  3332   000EF6  EF7F  F007         	goto	u40
  3333   000EFA                     u41:
  3334   000EFA  EF82  F007         	goto	l172
  3335   000EFE                     u40:
  3336   000EFE  0E01               	movlw	1
  3337   000F00  EFF8  F007         	goto	l173
  3338   000F04                     l172:
  3339   000F04  B481               	btfsc	3969,2,c	;volatile
  3340   000F06  EF87  F007         	goto	u51
  3341   000F0A  EF89  F007         	goto	u50
  3342   000F0E                     u51:
  3343   000F0E  EF8C  F007         	goto	l175
  3344   000F12                     u50:
  3345   000F12  0E04               	movlw	4
  3346   000F14  EFF8  F007         	goto	l173
  3347   000F18                     l175:
  3348   000F18  B681               	btfsc	3969,3,c	;volatile
  3349   000F1A  EF91  F007         	goto	u61
  3350   000F1E  EF93  F007         	goto	u60
  3351   000F22                     u61:
  3352   000F22  EF96  F007         	goto	l177
  3353   000F26                     u60:
  3354   000F26  0E07               	movlw	7
  3355   000F28  EFF8  F007         	goto	l173
  3356   000F2C                     l177:
  3357   000F2C  B881               	btfsc	3969,4,c	;volatile
  3358   000F2E  EF9B  F007         	goto	u71
  3359   000F32  EF9D  F007         	goto	u70
  3360   000F36                     u71:
  3361   000F36  EFA0  F007         	goto	l174
  3362   000F3A                     u70:
  3363   000F3A  0E0A               	movlw	10
  3364   000F3C  EFF8  F007         	goto	l173
  3365   000F40                     l174:
  3366                           
  3367                           ;car_black_box.c: 164:     RB5=1;
  3368   000F40  8A81               	bsf	3969,5,c	;volatile
  3369                           
  3370                           ;car_black_box.c: 165:     RB6=0;
  3371   000F42  9C81               	bcf	3969,6,c	;volatile
  3372                           
  3373                           ;car_black_box.c: 166:     RB7=1;
  3374   000F44  8E81               	bsf	3969,7,c	;volatile
  3375                           
  3376                           ;car_black_box.c: 167:     if(RB1 == 0) return 2;
  3377   000F46  B281               	btfsc	3969,1,c	;volatile
  3378   000F48  EFA8  F007         	goto	u81
  3379   000F4C  EFAA  F007         	goto	u80
  3380   000F50                     u81:
  3381   000F50  EFAD  F007         	goto	l180
  3382   000F54                     u80:
  3383   000F54  0E02               	movlw	2
  3384   000F56  EFF8  F007         	goto	l173
  3385   000F5A                     l180:
  3386   000F5A  B481               	btfsc	3969,2,c	;volatile
  3387   000F5C  EFB2  F007         	goto	u91
  3388   000F60  EFB4  F007         	goto	u90
  3389   000F64                     u91:
  3390   000F64  EFB7  F007         	goto	l182
  3391   000F68                     u90:
  3392   000F68  0E05               	movlw	5
  3393   000F6A  EFF8  F007         	goto	l173
  3394   000F6E                     l182:
  3395   000F6E  B681               	btfsc	3969,3,c	;volatile
  3396   000F70  EFBC  F007         	goto	u101
  3397   000F74  EFBE  F007         	goto	u100
  3398   000F78                     u101:
  3399   000F78  EFC1  F007         	goto	l184
  3400   000F7C                     u100:
  3401   000F7C  0E08               	movlw	8
  3402   000F7E  EFF8  F007         	goto	l173
  3403   000F82                     l184:
  3404   000F82  B881               	btfsc	3969,4,c	;volatile
  3405   000F84  EFC6  F007         	goto	u111
  3406   000F88  EFC8  F007         	goto	u110
  3407   000F8C                     u111:
  3408   000F8C  EFCB  F007         	goto	l181
  3409   000F90                     u110:
  3410   000F90  0E0B               	movlw	11
  3411   000F92  EFF8  F007         	goto	l173
  3412   000F96                     l181:
  3413                           
  3414                           ;car_black_box.c: 171:     RB5=1;
  3415   000F96  8A81               	bsf	3969,5,c	;volatile
  3416                           
  3417                           ;car_black_box.c: 172:     RB6=1;
  3418   000F98  8C81               	bsf	3969,6,c	;volatile
  3419                           
  3420                           ;car_black_box.c: 173:     RB7=0;
  3421   000F9A  9E81               	bcf	3969,7,c	;volatile
  3422                           
  3423                           ;car_black_box.c: 174:     RB7=0;
  3424   000F9C  9E81               	bcf	3969,7,c	;volatile
  3425                           
  3426                           ;car_black_box.c: 175:     if(RB1 == 0) return 3;
  3427   000F9E  B281               	btfsc	3969,1,c	;volatile
  3428   000FA0  EFD4  F007         	goto	u121
  3429   000FA4  EFD6  F007         	goto	u120
  3430   000FA8                     u121:
  3431   000FA8  EFD9  F007         	goto	l187
  3432   000FAC                     u120:
  3433   000FAC  0E03               	movlw	3
  3434   000FAE  EFF8  F007         	goto	l173
  3435   000FB2                     l187:
  3436   000FB2  B481               	btfsc	3969,2,c	;volatile
  3437   000FB4  EFDE  F007         	goto	u131
  3438   000FB8  EFE0  F007         	goto	u130
  3439   000FBC                     u131:
  3440   000FBC  EFE3  F007         	goto	l189
  3441   000FC0                     u130:
  3442   000FC0  0E06               	movlw	6
  3443   000FC2  EFF8  F007         	goto	l173
  3444   000FC6                     l189:
  3445   000FC6  B681               	btfsc	3969,3,c	;volatile
  3446   000FC8  EFE8  F007         	goto	u141
  3447   000FCC  EFEA  F007         	goto	u140
  3448   000FD0                     u141:
  3449   000FD0  EFED  F007         	goto	l191
  3450   000FD4                     u140:
  3451   000FD4  0E09               	movlw	9
  3452   000FD6  EFF8  F007         	goto	l173
  3453   000FDA                     l191:
  3454   000FDA  B881               	btfsc	3969,4,c	;volatile
  3455   000FDC  EFF2  F007         	goto	u151
  3456   000FE0  EFF4  F007         	goto	u150
  3457   000FE4                     u151:
  3458   000FE4  EFF7  F007         	goto	l190
  3459   000FE8                     u150:
  3460   000FE8  0E0C               	movlw	12
  3461   000FEA  EFF8  F007         	goto	l173
  3462   000FEE                     l190:
  3463   000FEE                     
  3464                           ;car_black_box.c: 179:     return 0xFF;
  3465   000FEE  0EFF               	movlw	255
  3466   000FF0                     l173:
  3467   000FF0  0012               	return		;funcret
  3468   000FF2                     __end_of_scan_key:
  3469                           	callstack 0
  3470                           
  3471 ;; *************** function _clcd_print *****************
  3472 ;; Defined at:
  3473 ;;		line 115 in file "car_black_box.c"
  3474 ;; Parameters:    Size  Location     Type
  3475 ;;  data            2    2[COMRAM] PTR const unsigned char 
  3476 ;;		 -> STR_25(17), STR_24(17), STR_23(17), STR_22(17), 
  3477 ;;		 -> STR_21(17), STR_20(17), STR_19(17), STR_18(17), 
  3478 ;;		 -> STR_17(16), STR_16(3), STR_15(3), STR_14(3), 
  3479 ;;		 -> STR_13(3), STR_12(3), STR_11(3), STR_10(3), 
  3480 ;;		 -> STR_9(3), STR_8(3), STR_7(3), STR_6(3), 
  3481 ;;		 -> STR_5(3), STR_4(3), STR_3(3), STR_2(3), 
  3482 ;;		 -> STR_1(3), 
  3483 ;;  addr            1    4[COMRAM] unsigned char 
  3484 ;; Auto vars:     Size  Location     Type
  3485 ;;		None
  3486 ;; Return value:  Size  Location     Type
  3487 ;;                  1    wreg      void 
  3488 ;; Registers used:
  3489 ;;		wreg, status,2, status,0, tblptrl, tblptrh, tblptru, cstack
  3490 ;; Tracked objects:
  3491 ;;		On entry : 0/0
  3492 ;;		On exit  : 0/0
  3493 ;;		Unchanged: 0/0
  3494 ;; Data sizes:     COMRAM   BANK0   BANK1   BANK2   BANK3   BANK4   BANK5
  3495 ;;      Params:         3       0       0       0       0       0       0
  3496 ;;      Locals:         0       0       0       0       0       0       0
  3497 ;;      Temps:          0       0       0       0       0       0       0
  3498 ;;      Totals:         3       0       0       0       0       0       0
  3499 ;;Total ram usage:        3 bytes
  3500 ;; Hardware stack levels used: 1
  3501 ;; Hardware stack levels required when called: 1
  3502 ;; This function calls:
  3503 ;;		_clcd_write
  3504 ;; This function is called by:
  3505 ;;		_display_default_screen
  3506 ;;		_display_signature
  3507 ;;		_login_screen
  3508 ;;		_display_menu_screen
  3509 ;; This function uses a non-reentrant model
  3510 ;;
  3511                           
  3512                           	psect	text19
  3513   001554                     __ptext19:
  3514                           	callstack 0
  3515   001554                     _clcd_print:
  3516                           	callstack 28
  3517   001554                     
  3518                           ;car_black_box.c: 115: void clcd_print(const unsigned char *data, unsigned char addr);ca
      +                          r_black_box.c: 116: {;car_black_box.c: 117:  clcd_write(addr, 0);
  3519   001554  0E00               	movlw	0
  3520   001556  6E01               	movwf	clcd_write@control_bit^0,c
  3521   001558  5005               	movf	clcd_print@addr^0,w,c
  3522   00155A  ECCC  F00A         	call	_clcd_write
  3523                           
  3524                           ;car_black_box.c: 118:  while (*data != '\0')
  3525   00155E  EFBD  F00A         	goto	l1556
  3526   001562                     l1552:
  3527                           
  3528                           ;car_black_box.c: 119:  {;car_black_box.c: 120:   clcd_write(*data++, 1);
  3529   001562  0E01               	movlw	1
  3530   001564  6E01               	movwf	clcd_write@control_bit^0,c
  3531   001566  C003  FFF6         	movff	clcd_print@data,tblptrl
  3532   00156A  C004  FFF7         	movff	clcd_print@data+1,tblptrh
  3533   00156E                     	if	0	;tblptru may be non-zero
  3534   00156E                     	endif
  3535   00156E                     	if	0	;tblptru may be non-zero
  3536   00156E                     	endif
  3537   00156E  0008               	tblrd		*
  3538   001570  50F5               	movf	tablat,w,c
  3539   001572  ECCC  F00A         	call	_clcd_write
  3540   001576  4A03               	infsnz	clcd_print@data^0,f,c
  3541   001578  2A04               	incf	(clcd_print@data+1)^0,f,c
  3542   00157A                     l1556:
  3543                           
  3544                           ;car_black_box.c: 118:  while (*data != '\0')
  3545   00157A  C003  FFF6         	movff	clcd_print@data,tblptrl
  3546   00157E  C004  FFF7         	movff	clcd_print@data+1,tblptrh
  3547   001582                     	if	0	;tblptru may be non-zero
  3548   001582                     	endif
  3549   001582                     	if	0	;tblptru may be non-zero
  3550   001582                     	endif
  3551   001582  0008               	tblrd		*
  3552   001584  50F5               	movf	tablat,w,c
  3553   001586  0900               	iorlw	0
  3554   001588  A4D8               	btfss	status,2,c
  3555   00158A  EFC9  F00A         	goto	u1001
  3556   00158E  EFCB  F00A         	goto	u1000
  3557   001592                     u1001:
  3558   001592  EFB1  F00A         	goto	l1552
  3559   001596                     u1000:
  3560   001596  0012               	return		;funcret
  3561   001598                     __end_of_clcd_print:
  3562                           	callstack 0
  3563                           
  3564 ;; *************** function _clcd_write *****************
  3565 ;; Defined at:
  3566 ;;		line 61 in file "car_black_box.c"
  3567 ;; Parameters:    Size  Location     Type
  3568 ;;  byte            1    wreg     unsigned char 
  3569 ;;  control_bit     1    0[COMRAM] unsigned char 
  3570 ;; Auto vars:     Size  Location     Type
  3571 ;;  byte            1    1[COMRAM] unsigned char 
  3572 ;; Return value:  Size  Location     Type
  3573 ;;                  1    wreg      void 
  3574 ;; Registers used:
  3575 ;;		wreg
  3576 ;; Tracked objects:
  3577 ;;		On entry : 0/0
  3578 ;;		On exit  : 0/0
  3579 ;;		Unchanged: 0/0
  3580 ;; Data sizes:     COMRAM   BANK0   BANK1   BANK2   BANK3   BANK4   BANK5
  3581 ;;      Params:         1       0       0       0       0       0       0
  3582 ;;      Locals:         1       0       0       0       0       0       0
  3583 ;;      Temps:          0       0       0       0       0       0       0
  3584 ;;      Totals:         2       0       0       0       0       0       0
  3585 ;;Total ram usage:        2 bytes
  3586 ;; Hardware stack levels used: 1
  3587 ;; This function calls:
  3588 ;;		Nothing
  3589 ;; This function is called by:
  3590 ;;		_init_clcd
  3591 ;;		_clcd_print
  3592 ;;		_clcd_putch
  3593 ;;		_login_screen
  3594 ;; This function uses a non-reentrant model
  3595 ;;
  3596                           
  3597                           	psect	text20
  3598   001598                     __ptext20:
  3599                           	callstack 0
  3600   001598                     _clcd_write:
  3601                           	callstack 29
  3602                           
  3603                           ;incstack = 0
  3604                           ;clcd_write@byte stored from wreg
  3605   001598  6E02               	movwf	clcd_write@byte^0,c
  3606   00159A                     
  3607                           ;car_black_box.c: 61: void clcd_write(unsigned char byte, unsigned char control_bit);car
      +                          _black_box.c: 62: {;car_black_box.c: 63:  RC1 = control_bit;
  3608   00159A  B001               	btfsc	clcd_write@control_bit^0,0,c
  3609   00159C  EFD2  F00A         	goto	u971
  3610   0015A0  EFD5  F00A         	goto	u970
  3611   0015A4                     u971:
  3612   0015A4  8282               	bsf	3970,1,c	;volatile
  3613   0015A6  EFD6  F00A         	goto	u985
  3614   0015AA                     u970:
  3615   0015AA  9282               	bcf	3970,1,c	;volatile
  3616   0015AC                     u985:
  3617   0015AC                     
  3618                           ;car_black_box.c: 64:  PORTD = byte;
  3619   0015AC  C002  FF83         	movff	clcd_write@byte,3971	;volatile
  3620   0015B0                     
  3621                           ;car_black_box.c: 67:  RC2 = 1;
  3622   0015B0  8482               	bsf	3970,2,c	;volatile
  3623   0015B2                     
  3624                           ;car_black_box.c: 68:  RC2 = 0;
  3625   0015B2  9482               	bcf	3970,2,c	;volatile
  3626   0015B4                     
  3627                           ;car_black_box.c: 70:  TRISD7 = 0xFF;
  3628   0015B4  8E95               	bsf	3989,7,c	;volatile
  3629   0015B6                     
  3630                           ;car_black_box.c: 71:  RC0 = 1;
  3631   0015B6  8082               	bsf	3970,0,c	;volatile
  3632   0015B8                     
  3633                           ;car_black_box.c: 72:  RC1 = 0;
  3634   0015B8  9282               	bcf	3970,1,c	;volatile
  3635   0015BA                     l1544:
  3636                           
  3637                           ;car_black_box.c: 75:  {;car_black_box.c: 76:   RC2 = 1;
  3638   0015BA  8482               	bsf	3970,2,c	;volatile
  3639   0015BC                     
  3640                           ;car_black_box.c: 77:   RC2 = 0;
  3641   0015BC  9482               	bcf	3970,2,c	;volatile
  3642   0015BE                     
  3643                           ;car_black_box.c: 78:  } while (RD7);
  3644   0015BE  BE83               	btfsc	3971,7,c	;volatile
  3645   0015C0  EFE4  F00A         	goto	u991
  3646   0015C4  EFE6  F00A         	goto	u990
  3647   0015C8                     u991:
  3648   0015C8  EFDD  F00A         	goto	l1544
  3649   0015CC                     u990:
  3650   0015CC                     
  3651                           ;car_black_box.c: 80:  RC0 = 0;
  3652   0015CC  9082               	bcf	3970,0,c	;volatile
  3653                           
  3654                           ;car_black_box.c: 81:  TRISD7 = 0x00;
  3655   0015CE  9E95               	bcf	3989,7,c	;volatile
  3656   0015D0  0012               	return		;funcret
  3657   0015D2                     __end_of_clcd_write:
  3658                           	callstack 0
  3659                           
  3660                           	psect	rparam
  3661   000000                     
  3662                           	psect	idloc
  3663                           
  3664                           ;Config register IDLOC0 @ 0x200000
  3665                           ;	unspecified, using default values
  3666   200000                     	org	2097152
  3667   200000  FF                 	db	255
  3668                           
  3669                           ;Config register IDLOC1 @ 0x200001
  3670                           ;	unspecified, using default values
  3671   200001                     	org	2097153
  3672   200001  FF                 	db	255
  3673                           
  3674                           ;Config register IDLOC2 @ 0x200002
  3675                           ;	unspecified, using default values
  3676   200002                     	org	2097154
  3677   200002  FF                 	db	255
  3678                           
  3679                           ;Config register IDLOC3 @ 0x200003
  3680                           ;	unspecified, using default values
  3681   200003                     	org	2097155
  3682   200003  FF                 	db	255
  3683                           
  3684                           ;Config register IDLOC4 @ 0x200004
  3685                           ;	unspecified, using default values
  3686   200004                     	org	2097156
  3687   200004  FF                 	db	255
  3688                           
  3689                           ;Config register IDLOC5 @ 0x200005
  3690                           ;	unspecified, using default values
  3691   200005                     	org	2097157
  3692   200005  FF                 	db	255
  3693                           
  3694                           ;Config register IDLOC6 @ 0x200006
  3695                           ;	unspecified, using default values
  3696   200006                     	org	2097158
  3697   200006  FF                 	db	255
  3698                           
  3699                           ;Config register IDLOC7 @ 0x200007
  3700                           ;	unspecified, using default values
  3701   200007                     	org	2097159
  3702   200007  FF                 	db	255
  3703                           
  3704                           	psect	config
  3705                           
  3706                           ; Padding undefined space
  3707   300000                     	org	3145728
  3708   300000  FF                 	db	255
  3709                           
  3710                           ;Config register CONFIG1H @ 0x300001
  3711                           ;	unspecified, using default values
  3712                           ;	Oscillator Selection bits
  3713                           ;	OSC = 0x7, unprogrammed default
  3714                           ;	Fail-Safe Clock Monitor Enable bit
  3715                           ;	FCMEN = 0x0, unprogrammed default
  3716                           ;	Internal/External Oscillator Switchover bit
  3717                           ;	IESO = 0x0, unprogrammed default
  3718   300001                     	org	3145729
  3719   300001  07                 	db	7
  3720                           
  3721                           ;Config register CONFIG2L @ 0x300002
  3722                           ;	unspecified, using default values
  3723                           ;	Power-up Timer Enable bit
  3724                           ;	PWRT = 0x1, unprogrammed default
  3725                           ;	Brown-out Reset Enable bits
  3726                           ;	BOREN = 0x3, unprogrammed default
  3727                           ;	Brown-out Reset Voltage bits
  3728                           ;	BORV = 0x3, unprogrammed default
  3729   300002                     	org	3145730
  3730   300002  1F                 	db	31
  3731                           
  3732                           ;Config register CONFIG2H @ 0x300003
  3733                           ;	unspecified, using default values
  3734                           ;	Watchdog Timer Enable bit
  3735                           ;	WDT = 0x1, unprogrammed default
  3736                           ;	Watchdog Timer Postscale Select bits
  3737                           ;	WDTPS = 0xF, unprogrammed default
  3738   300003                     	org	3145731
  3739   300003  1F                 	db	31
  3740                           
  3741                           ; Padding undefined space
  3742   300004                     	org	3145732
  3743   300004  FF                 	db	255
  3744                           
  3745                           ;Config register CONFIG3H @ 0x300005
  3746                           ;	unspecified, using default values
  3747                           ;	PORTB A/D Enable bit
  3748                           ;	PBADEN = 0x1, unprogrammed default
  3749                           ;	Low-Power Timer 1 Oscillator Enable bit
  3750                           ;	LPT1OSC = 0x0, unprogrammed default
  3751                           ;	MCLR Pin Enable bit
  3752                           ;	MCLRE = 0x1, unprogrammed default
  3753   300005                     	org	3145733
  3754   300005  82                 	db	130
  3755                           
  3756                           ;Config register CONFIG4L @ 0x300006
  3757                           ;	unspecified, using default values
  3758                           ;	Stack Full/Underflow Reset Enable bit
  3759                           ;	STVREN = 0x1, unprogrammed default
  3760                           ;	Single-Supply ICSP Enable bit
  3761                           ;	LVP = 0x1, unprogrammed default
  3762                           ;	Boot Block Size Select bit
  3763                           ;	BBSIZ = 0x0, unprogrammed default
  3764                           ;	Extended Instruction Set Enable bit
  3765                           ;	XINST = 0x0, unprogrammed default
  3766                           ;	Background Debugger Enable bit
  3767                           ;	DEBUG = 0x1, unprogrammed default
  3768   300006                     	org	3145734
  3769   300006  85                 	db	133
  3770                           
  3771                           ; Padding undefined space
  3772   300007                     	org	3145735
  3773   300007  FF                 	db	255
  3774                           
  3775                           ;Config register CONFIG5L @ 0x300008
  3776                           ;	unspecified, using default values
  3777                           ;	Code Protection bit
  3778                           ;	CP0 = 0x1, unprogrammed default
  3779                           ;	Code Protection bit
  3780                           ;	CP1 = 0x1, unprogrammed default
  3781                           ;	Code Protection bit
  3782                           ;	CP2 = 0x1, unprogrammed default
  3783                           ;	Code Protection bit
  3784                           ;	CP3 = 0x1, unprogrammed default
  3785   300008                     	org	3145736
  3786   300008  0F                 	db	15
  3787                           
  3788                           ;Config register CONFIG5H @ 0x300009
  3789                           ;	unspecified, using default values
  3790                           ;	Boot Block Code Protection bit
  3791                           ;	CPB = 0x1, unprogrammed default
  3792                           ;	Data EEPROM Code Protection bit
  3793                           ;	CPD = 0x1, unprogrammed default
  3794   300009                     	org	3145737
  3795   300009  C0                 	db	192
  3796                           
  3797                           ;Config register CONFIG6L @ 0x30000A
  3798                           ;	unspecified, using default values
  3799                           ;	Write Protection bit
  3800                           ;	WRT0 = 0x1, unprogrammed default
  3801                           ;	Write Protection bit
  3802                           ;	WRT1 = 0x1, unprogrammed default
  3803                           ;	Write Protection bit
  3804                           ;	WRT2 = 0x1, unprogrammed default
  3805                           ;	Write Protection bit
  3806                           ;	WRT3 = 0x1, unprogrammed default
  3807   30000A                     	org	3145738
  3808   30000A  0F                 	db	15
  3809                           
  3810                           ;Config register CONFIG6H @ 0x30000B
  3811                           ;	unspecified, using default values
  3812                           ;	Configuration Register Write Protection bit
  3813                           ;	WRTC = 0x1, unprogrammed default
  3814                           ;	Boot Block Write Protection bit
  3815                           ;	WRTB = 0x1, unprogrammed default
  3816                           ;	Data EEPROM Write Protection bit
  3817                           ;	WRTD = 0x1, unprogrammed default
  3818   30000B                     	org	3145739
  3819   30000B  E0                 	db	224
  3820                           
  3821                           ;Config register CONFIG7L @ 0x30000C
  3822                           ;	unspecified, using default values
  3823                           ;	Table Read Protection bit
  3824                           ;	EBTR0 = 0x1, unprogrammed default
  3825                           ;	Table Read Protection bit
  3826                           ;	EBTR1 = 0x1, unprogrammed default
  3827                           ;	Table Read Protection bit
  3828                           ;	EBTR2 = 0x1, unprogrammed default
  3829                           ;	Table Read Protection bit
  3830                           ;	EBTR3 = 0x1, unprogrammed default
  3831   30000C                     	org	3145740
  3832   30000C  0F                 	db	15
  3833                           
  3834                           ;Config register CONFIG7H @ 0x30000D
  3835                           ;	unspecified, using default values
  3836                           ;	Boot Block Table Read Protection bit
  3837                           ;	EBTRB = 0x1, unprogrammed default
  3838   30000D                     	org	3145741
  3839   30000D  40                 	db	64
  3840                           tosu	equ	0xFFF
  3841                           tosh	equ	0xFFE
  3842                           tosl	equ	0xFFD
  3843                           stkptr	equ	0xFFC
  3844                           pclatu	equ	0xFFB
  3845                           pclath	equ	0xFFA
  3846                           pcl	equ	0xFF9
  3847                           tblptru	equ	0xFF8
  3848                           tblptrh	equ	0xFF7
  3849                           tblptrl	equ	0xFF6
  3850                           tablat	equ	0xFF5
  3851                           prodh	equ	0xFF4
  3852                           prodl	equ	0xFF3
  3853                           indf0	equ	0xFEF
  3854                           postinc0	equ	0xFEE
  3855                           postdec0	equ	0xFED
  3856                           preinc0	equ	0xFEC
  3857                           plusw0	equ	0xFEB
  3858                           fsr0h	equ	0xFEA
  3859                           fsr0l	equ	0xFE9
  3860                           wreg	equ	0xFE8
  3861                           indf1	equ	0xFE7
  3862                           postinc1	equ	0xFE6
  3863                           postdec1	equ	0xFE5
  3864                           preinc1	equ	0xFE4
  3865                           plusw1	equ	0xFE3
  3866                           fsr1h	equ	0xFE2
  3867                           fsr1l	equ	0xFE1
  3868                           bsr	equ	0xFE0
  3869                           indf2	equ	0xFDF
  3870                           postinc2	equ	0xFDE
  3871                           postdec2	equ	0xFDD
  3872                           preinc2	equ	0xFDC
  3873                           plusw2	equ	0xFDB
  3874                           fsr2h	equ	0xFDA
  3875                           fsr2l	equ	0xFD9
  3876                           status	equ	0xFD8

Data Sizes:
    Strings     176
    Constant    0
    Data        23
    BSS         1
    Persistent  0
    Stack       0

Auto Spaces:
    Space          Size  Autos    Used
    COMRAM           95     60      84
    BANK0           160      0       0
    BANK1           256      0       0
    BANK2           256      0       0
    BANK3           256      0       0
    BANK4           256      0       0
    BANK5           256      0       0

Pointer List with Targets:

    clcd_print@data	PTR const unsigned char  size(2) Largest target is 17
		 -> STR_25(CODE[17]), STR_24(CODE[17]), STR_23(CODE[17]), STR_22(CODE[17]), 
		 -> STR_21(CODE[17]), STR_20(CODE[17]), STR_19(CODE[17]), STR_18(CODE[17]), 
		 -> STR_17(CODE[16]), STR_16(CODE[3]), STR_15(CODE[3]), STR_14(CODE[3]), 
		 -> STR_13(CODE[3]), STR_12(CODE[3]), STR_11(CODE[3]), STR_10(CODE[3]), 
		 -> STR_9(CODE[3]), STR_8(CODE[3]), STR_7(CODE[3]), STR_6(CODE[3]), 
		 -> STR_5(CODE[3]), STR_4(CODE[3]), STR_3(CODE[3]), STR_2(CODE[3]), 
		 -> STR_1(CODE[3]), 

    signature	PTR unsigned char [8] size(2) Largest target is 3
		 -> STR_16(CODE[3]), STR_15(CODE[3]), STR_14(CODE[3]), STR_13(CODE[3]), 
		 -> STR_12(CODE[3]), STR_11(CODE[3]), STR_10(CODE[3]), STR_9(CODE[3]), 
		 -> STR_8(CODE[3]), STR_7(CODE[3]), STR_6(CODE[3]), STR_5(CODE[3]), 
		 -> STR_4(CODE[3]), STR_3(CODE[3]), STR_2(CODE[3]), STR_1(CODE[3]), 


Critical Paths under _main in COMRAM

    _login_screen->_clcd_putch
    _init_configure->_init_clcd
    _init_clcd->_clcd_write
    _display_menu_screen->_clcd_print
    _display_default_screen->_display_speed
    _display_speed->___fltol
    _clcd_putch->___lwdiv
    ___xxtofl->_read_adc
    ___fltol->___fldiv
    ___fldiv->___xxtofl
    _display_signature->_clcd_print
    _clcd_print->_clcd_write

Critical Paths under _main in BANK0

    None.

Critical Paths under _main in BANK1

    None.

Critical Paths under _main in BANK2

    None.

Critical Paths under _main in BANK3

    None.

Critical Paths under _main in BANK4

    None.

Critical Paths under _main in BANK5

    None.

Call Graph Tables:

 ---------------------------------------------------------------------------------
 (Depth) Function   	        Calls       Base Space   Used Autos Params    Refs
 ---------------------------------------------------------------------------------
 (0) _main                                                 3     3      0   19430
                                             59 COMRAM     1     1      0
             _display_default_screen
                _display_menu_screen
                     _init_configure
                       _login_screen
                 _read_matrix_keypad
 ---------------------------------------------------------------------------------
 (1) _login_screen                                        31    31      0    5930
                                              9 COMRAM    29    29      0
                         _clcd_print
                         _clcd_putch
                         _clcd_write
                 _read_matrix_keypad
 ---------------------------------------------------------------------------------
 (1) _init_configure                                       0     0      0    1032
                           _init_adc
                          _init_clcd
                 _init_matrix_keypad
 ---------------------------------------------------------------------------------
 (2) _init_matrix_keypad                                   0     0      0       0
 ---------------------------------------------------------------------------------
 (2) _init_clcd                                            2     2      0    1032
                                              2 COMRAM     2     2      0
                         _clcd_write
 ---------------------------------------------------------------------------------
 (2) _init_adc                                             0     0      0       0
 ---------------------------------------------------------------------------------
 (1) _display_menu_screen                                  0     0      0    2619
                         _clcd_print
 ---------------------------------------------------------------------------------
 (1) _display_default_screen                               0     0      0    9706
                         _clcd_print
                  _display_signature
                      _display_speed
 ---------------------------------------------------------------------------------
 (2) _display_speed                                        2     2      0    4326
                                             57 COMRAM     2     2      0
                            ___fldiv
                            ___fltol
                            ___lwdiv
                            ___lwmod
                           ___xxtofl
                         _clcd_putch
                           _read_adc
 ---------------------------------------------------------------------------------
 (3) _read_adc                                             8     6      2      22
                                              0 COMRAM     8     6      2
 ---------------------------------------------------------------------------------
 (2) _clcd_putch                                           2     1      1    1532
                                              7 COMRAM     2     1      1
                            ___lwdiv (ARG)
                            ___lwmod (ARG)
                         _clcd_write
 ---------------------------------------------------------------------------------
 (3) ___xxtofl                                            14    10      4     398
                                              8 COMRAM    14    10      4
                           _read_adc (ARG)
 ---------------------------------------------------------------------------------
 (3) ___lwmod                                              5     1      4     311
                                              0 COMRAM     5     1      4
 ---------------------------------------------------------------------------------
 (3) ___lwdiv                                              7     3      4     314
                                              0 COMRAM     7     3      4
 ---------------------------------------------------------------------------------
 (3) ___fltol                                             10     6      4     305
                                             47 COMRAM    10     6      4
                            ___fldiv (ARG)
                           ___xxtofl (ARG)
                           _read_adc (ARG)
 ---------------------------------------------------------------------------------
 (3) ___fldiv                                             25    17      8    1399
                                             22 COMRAM    25    17      8
                           ___xxtofl (ARG)
                           _read_adc (ARG)
 ---------------------------------------------------------------------------------
 (2) _display_signature                                    3     3      0    2761
                                              5 COMRAM     3     3      0
                         _clcd_print
                 _read_matrix_keypad
 ---------------------------------------------------------------------------------
 (1) _read_matrix_keypad                                   2     2      0      75
                                              0 COMRAM     2     2      0
                           _scan_key
 ---------------------------------------------------------------------------------
 (2) _scan_key                                             0     0      0       0
 ---------------------------------------------------------------------------------
 (2) _clcd_print                                           3     0      3    2619
                                              2 COMRAM     3     0      3
                         _clcd_write
 ---------------------------------------------------------------------------------
 (2) _clcd_write                                           2     1      1    1032
                                              0 COMRAM     2     1      1
 ---------------------------------------------------------------------------------
 Estimated maximum stack depth 3
 ---------------------------------------------------------------------------------

 Call Graph Graphs:

 _main (ROOT)
   _display_default_screen
     _clcd_print
       _clcd_write
     _display_signature
       _clcd_print
       _read_matrix_keypad
         _scan_key
     _display_speed
       ___fldiv
         ___xxtofl (ARG)
           _read_adc (ARG)
         _read_adc (ARG)
       ___fltol
         ___fldiv (ARG)
         ___xxtofl (ARG)
         _read_adc (ARG)
       ___lwdiv
       ___lwmod
       ___xxtofl
       _clcd_putch
         ___lwdiv (ARG)
         ___lwmod (ARG)
         _clcd_write (ARG)
       _read_adc
   _display_menu_screen
     _clcd_print
   _init_configure
     _init_adc
     _init_clcd
       _clcd_write
     _init_matrix_keypad
   _login_screen
     _clcd_print
     _clcd_putch
     _clcd_write
     _read_matrix_keypad
   _read_matrix_keypad

 Address spaces:
Name               Size   Autos  Total    Cost      Usage
BIGRAM             5FF      0       0      22        0.0%
BITBIGSFRl         281      0       0      20        0.0%
EEDATA             100      0       0       0        0.0%
BITBANK5           100      0       0      14        0.0%
BANK5              100      0       0      15        0.0%
BITBANK4           100      0       0      12        0.0%
BANK4              100      0       0      13        0.0%
BITBANK3           100      0       0      10        0.0%
BANK3              100      0       0      11        0.0%
BITBANK2           100      0       0       8        0.0%
BANK2              100      0       0       9        0.0%
BITBANK1           100      0       0       6        0.0%
BANK1              100      0       0       7        0.0%
BITBANK0            A0      0       0       4        0.0%
BANK0               A0      0       0       5        0.0%
BITCOMRAM           5F      0       0       0        0.0%
COMRAM              5F     3C      54       1       88.4%
BITBIGSFRhhlh       2C      0       0      17        0.0%
BITBIGSFRhhll       2A      0       0      18        0.0%
BITBIGSFRhl          F      0       0      19        0.0%
BITBIGSFRhhh         E      0       0      16        0.0%
BIGSFR               0      0       0     200        0.0%
BITSFR_3             0      0       0     200        0.0%
SFR_3                0      0       0     200        0.0%
BITSFR_2             0      0       0     200        0.0%
SFR_2                0      0       0     200        0.0%
BITSFR_1             0      0       0     200        0.0%
SFR_1                0      0       0     200        0.0%
BITSFR               0      0       0     200        0.0%
SFR                  0      0       0     200        0.0%
STACK                0      0       0       2        0.0%
NULL                 0      0       0       0        0.0%
ABS                  0      0      54      21        0.0%
DATA                 0      0      54       3        0.0%
CODE                 0      0       0       0        0.0%


Microchip Technology PIC18 Macro Assembler V2.41 build 20230208172133 
Symbol Table                                                                                   Tue Dec 19 18:49:14 2023

                  ___fldiv@aexp 002F                    ___fldiv@bexp 002E                    ___fldiv@sign 0027  
                clcd_print@addr 0005                  clcd_print@data 0003                              l21 1690  
                            l31 13B4                              l27 136A                              _GO 7E11  
                            u40 0EFE                              u41 0EFA                              u50 0F12  
                            u51 0F0E                              u60 0F26                              u61 0F22  
                            u70 0F3A                              u71 0F36                              u80 0F54  
                            u81 0F50                              u90 0F68                              u91 0F64  
            _init_matrix_keypad 1692                             l202 1524                             l124 163C  
                           l205 1552                             l141 1322                             l135 11B6  
                           l145 15CC                             l146 15D0                             l162 1430  
                           l138 11D8                             l155 1596                             l235 0D34  
                           l180 0F5A                             l172 0F04                             l164 142E  
                           l181 0F96                             l173 0FF0                             l149 1288  
                           l190 0FEE                             l182 0F6E                             l174 0F40  
                           l158 1654                             l238 1622                             l191 0FDA  
                           l175 0F18                             l184 0F82                             l177 0F2C  
                           l187 0FB2                             l196 1698                             l189 0FC6  
                           l199 1682                             l538 10F6                             l732 149C  
                           l742 1500                             l910 0E80                             l823 0A4A  
                           l903 0E24                             l825 08AA                             l834 08F0  
                           l739 14A4                             l836 0968                             l828 086E  
                           l837 0956                             l749 1508                             l942 0F12  
                           l934 0EEA                             l936 0EFE                             l970 0F7C  
                           l954 0F3A                             l980 0FAC                             l964 0F68  
                           l948 0F26                             l958 0F54                             l992 0FD4  
                           l976 0F90                             l896 0D8C                             l986 0FC0  
                           l899 0EE8                             l998 0FE8                             _RB1 7C09  
                           _RC0 7C10                             _RB2 7C0A                             _RC1 7C11  
                           _RB3 7C0B                             _RC2 7C12                             _RB4 7C0C  
                           _RB5 7C0D                             _RB6 7C0E                             _RB7 7C0F  
                           u100 0F7C                             u101 0F78                             u110 0F90  
                           u111 0F8C                             _RD7 7C1F                             u120 0FAC  
                           u200 1426                             u121 0FA8                             u201 1422  
                           u130 0FC0                             u131 0FBC                             u140 0FD4  
                           u141 0FD0                             u150 0FE8                             u151 0FE4  
                           u160 13CE                             u161 13CA                             u170 13E6  
                           u171 13E2                             u180 13FC                             u181 13F8  
                           u190 140C                             u191 1408                             u970 15AA  
                           u971 15A4                             u990 15CC                             u991 15C8  
                           u985 15AC                  clcd_putch@addr 0008                  clcd_putch@data 0009  
                           wreg 0FE8             ?_init_matrix_keypad 0001           display_signature@gear 0051  
                  ___fltol@exp1 0039                            l1002 0FEE                            l1020 13FC  
                          l1030 1426                            l1022 140C                            l1014 13D6  
                          l1006 13BE                            l1016 13E6                            l1032 142E  
                          l1008 13CE                            l2000 0CF4                            l1018 13EC  
                          l2002 0CF8                            l2010 0D22                            l1028 1416  
                          l2012 1602                            l2004 0D00                            l2020 1330  
                          l2006 0D04                            l2030 1382                            l2022 1342  
                          l2014 1324                            l2008 0D0C                            l2032 1392  
                          l2024 1354                            l2016 1328                            l2034 139A  
                          l2026 1366                            l2018 1328                            l2036 13AC  
                          l2028 137A                            l1600 0754                            l1360 1696  
                          l1530 159A                            l1610 0794                            l1602 0764  
                          l1362 166E                            l1540 15B6                            l1532 15AC  
                          l1700 0A40                            l1612 07A4                            l1620 07C4  
                          l1604 0766                            l1542 15B8                            l1534 15B0  
                          l1550 1554                            l1630 0802                            l1622 07D4  
                          l1614 07AC                            l1606 076E                            l1710 1008  
                          l1358 1692                            l1544 15BA                            l1536 15B2  
                          l1552 1562                            l1640 084A                            l1632 0812  
                          l1624 07D4                            l1616 07B0                            l1608 077E  
                          l1720 1058                            l1560 1520                            l1546 15BC  
                          l1538 15B4                            l1554 1576                            l1650 0898  
                          l1642 085E                            l1634 0822                            l1570 06B2  
                          l1730 1082                            l1722 105C                            l1714 101C  
                          l1810 0E0E                            l1802 0DC6                            l1562 1522  
                          l1548 15BE                            l1556 157A                            l1660 08E0  
                          l1652 08A8                            l1644 086C                            l1636 0832  
                          l1628 07E8                            l1580 06EE                            l1572 06BE  
                          l1740 10AA                            l1732 108C                            l1724 106A  
                          l1716 1046                            l1708 0FF2                            l1820 0E8E  
                          l1812 0E1A                            l1804 0DCE                            l1564 1532  
                          l1900 1688                            l1670 0920                            l1662 08EE  
                          l1654 08BA                            l1646 0878                            l1638 083A  
                          l1590 071E                            l1582 06FE                            l1574 06CC  
                          l1742 10B6                            l1734 1096                            l1718 1048  
                          l1830 0ED6                            l1822 0E90                            l1814 0E56  
                          l1806 0DDA                            l1558 150C                            l1902 168C  
                          l1910 0A4C                            l1680 0992                            l1672 094E  
                          l1656 08D0                            l1664 0900                            l1648 0896  
                          l1592 0724                            l1584 0700                            l1576 06CE  
                          l1744 10C6                            l1760 145C                            l1752 1432  
                          l1832 0ED8                            l1824 0E94                            l1816 0E62  
                          l1808 0E0C                            l1568 1640                            l1904 1624  
                          l1840 11E4                            l1920 0ABA                            l1912 0A58  
                          l1690 0A0A                            l1682 09BC                            l1666 090E  
                          l1658 08D6                            l1594 0732                            l1578 06DE  
                          l1586 0708                            l1746 10D6                            l1770 1490  
                          l1762 146A                            l1754 143A                            l1826 0EB8  
                          l1818 0E70                            l1906 1634                            l1850 1222  
                          l1842 11E6                            l1930 0B1A                            l1922 0ACA  
                          l1914 0A90                            l1692 0A26                            l1676 0978  
                          l1684 09C0                            l1668 0912                            l1596 0734  
                          l1588 0718                            l1748 10E6                            l1772 1496  
                          l1764 1470                            l1756 144C                            l1780 14C8  
                          l1828 0EC8                            l1908 1638                            l1860 124C  
                          l1852 122A                            l1844 11FE                            l1836 11DA  
                          l1940 0B5E                            l1924 0AE6                            l1932 0B1C  
                          l1916 0AA2                            l1694 0A2A                            l1686 09DA  
                          l1678 0984                            l1598 0744                            l1766 1486  
                          l1758 1454                            l1782 14D6                            l1774 14A6  
                          l1790 0D38                            l1870 1280                            l1862 1256  
                          l1854 1234                            l1846 1208                            l1838 11DE  
                          l1950 0BBA                            l1942 0B88                            l1934 0B2E  
                          l1926 0AFE                            l1918 0AB2                            l1880 1138  
                          l1872 10F8                            l1696 0A38                            l1688 09F0  
                          l1768 148E                            l1784 14EC                            l1776 14B8  
                          l1792 0D48                            l1864 125E                            l1856 123A  
                          l1848 1218                            l1960 0BDE                            l1952 0BC6  
                          l1944 0B90                            l1936 0B40                            l1928 0B0E  
                          l1890 1190                            l1882 1154                            l1874 1106  
                          l1698 0A3E                            l1786 14F4                            l1778 14C0  
                          l1794 0D56                            l1866 1268                            l1858 1244  
                          l1962 0BE2                            l1954 0BD6                            l1970 0C10  
                          l1938 0B4C                            l1946 0B94                            l1892 11AC  
                          l1884 115C                            l1876 1118                            l1788 14FA  
                          l1796 0D9C                            l1868 1276                            l1980 0C72  
                          l1972 0C22                            l1964 0BFE                            l1948 0BA6  
                          l1886 1170                            l1894 11B6                            l1878 1124  
                          l1798 0DB2                            l1990 0C90                            l1982 0C76  
                          l1974 0C36                            l1966 0C08                            l1888 117C  
                          l1896 128A                            l1992 0CA0                            l1984 0C7E  
                          l1976 0C46                            l1898 1684                            l1994 0CC6  
                          l1986 0C86                            l1978 0C66                            l1988 0C8E  
                          l1996 0CD4                            l1998 0CF4                            _ADFM 7E07  
                          _ADON 7E10                            STR_1 0699                            STR_2 06A8  
                          STR_3 069C                            STR_4 069F                            STR_5 06A2  
                          STR_6 06A5                            STR_7 06AE                            STR_8 06AB  
                          STR_9 0699                            u1000 1596                            u1001 1592  
                          u1010 1532                            u1011 152E                            u1100 084A  
                          u1020 06CC                            u1101 0846                            u1021 06C8  
                          u1110 086C                            u1030 06DE                            u1111 0868  
                          u1031 06DA                            u1200 0978                            u1120 0896  
                          u1040 06EE                            u1201 0974                            u1121 0892  
                          u1041 06EA                            u1210 0992                            u1130 08BA  
                          u1050 0732                            u1211 098E                            u1131 08B6  
                          u1051 072E                            u1220 09DA                            u1140 08D0  
                          u1060 0744                            u1300 10C6                            u1221 09D6  
                          u1141 08CC                            u1061 0740                            u1301 10C2  
                          u1230 0A0A                            u1150 08EE                            u1070 0754  
                          u1310 10D6                            u1231 0A06                            u1151 08EA  
                          u1071 0750                            u1311 10D2                            u1240 0A38  
                          u1160 090E                            u1080 0794                            u1320 144C  
                          u1400 0DB2                            u1241 0A34                            u1161 090A  
                          u1081 0790                            u1321 1448                            u1401 0DAE  
                          u1170 0920                            u1090 07D4                            u1250 1008  
                          u1330 146A                            u1410 0E08                            u1171 091C  
                          u1091 07D0                            u1251 1004                            u1331 1466  
                          u1411 0E04                            u1500 1154                            u1180 094E  
                          u1260 103C                            u1340 1486                            u1420 0E52  
                          u1501 1150                            u1181 094A                            u1341 1482  
                          u1421 0E4E                            u1510 1170                            u1190 0964  
                          u1270 106A                            u1350 14B8                            u1430 0E70  
                          u1511 116C                            u1191 0960                            u1271 1066  
                          u1351 14B4                            u1431 0E6C                            u1520 1190  
                          u1280 107E                            u1360 14D6                            u1440 0E80  
                          u1600 0B88                            u1521 118C                            u1281 107A  
                          u1265 1032                            u1361 14D2                            u1441 0E7C  
                          u1601 0B84                            u1530 11AC                            u1290 10A6  
                          u1370 14EC                            u1450 0E8E                            u1610 0BA6  
                          u1531 11A8                            u1291 10A2                            u1371 14E8  
                          u1451 0E8A                            u1611 0BA2                            u1460 0EC8  
                          u1380 0D48                            u1620 0BBA                            u1540 0AA2  
                          u1700 1342                            u1461 0EC4                            u1381 0D44  
                          u1621 0BB6                            u1541 0A9E                            u1701 133E  
                          u1470 0ED6                            u1390 0D56                            u1630 0BFE  
                          u1550 0ACA                            u1710 1354                            u1471 0ED2  
                          u1391 0D52                            u1631 0BFA                            u1551 0AC6  
                          u1711 1350                            u1480 1118                            u1640 0C22  
                          u1560 0AE6                            u1720 1366                            u1481 1114  
                          u1641 0C1E                            u1561 0AE2                            u1721 1362  
                          u1490 1138                            u1650 0C36                            u1570 0AFE  
                          u1730 137A                            u1491 1134                            u1651 0C32  
                          u1571 0AFA                            u1731 1376                            u1660 0C46  
                          u1580 0B2E                            u1740 1392                            u1661 0C42  
                          u1581 0B2A                            u1741 138E                            u1670 0CC6  
                          u1590 0B40                            u1750 13AC                            u1807 1258  
                          u1671 0CC2                            u1591 0B3C                            u1751 13A8  
                          u1680 0D22                            u1817 126E                            u1681 0D1E  
                          u1690 0D34                            u1827 1282                            u1691 0D30  
                          u1767 11F0                            u1777 120E                            u1787 1224  
                          u1797 1246                            _RBPU 7F8F                  ?_display_speed 0001  
                          _main 1324                            fsr2h 0FDA                            indf2 0FDF  
                          fsr1l 0FE1                            fsr2l 0FD9                            start 0000  
               ___fldiv@new_exp 0028            ??_init_matrix_keypad 0001                    ___param_bank 0000  
                clcd_write@byte 0002                   ___fltol@sign1 0038                           ?_main 0001  
               __end_of___fldiv 0A4C                           _ACQT0 7E03                           _ACQT1 7E04  
                         _ACQT2 7E05                           STR_10 06A8                           STR_11 069C  
                         STR_20 0656                           STR_12 069F                           STR_21 0667  
                         STR_13 06A2                           STR_22 0634                           STR_14 06A5  
                         STR_23 0601                           STR_15 06AE                           STR_24 0623  
                         STR_16 06AB                           STR_17 0689                           STR_25 0612  
                         STR_18 0645                           STR_19 0678                 __end_of___fltol 10F8  
                         _PCFG0 7E08                           _PCFG1 7E09                           _PCFG2 7E0A  
                         _PCFG3 7E0B                 __end_of___lwdiv 14A6                 __end_of___lwmod 150A  
                         _VCFG0 7E0C                           _VCFG1 7E0D                           _PORTD 0F83  
                         _TRISB 0F93                           _TRISC 0F94                           _TRISD 0F95  
            _read_matrix_keypad 13BC                           tablat 0FF5             ?_read_matrix_keypad 0001  
                         status 0FD8                 __initialization 15D2                    __end_of_main 13BC  
          ??_read_matrix_keypad 0001                          ??_main 003C                   __activetblptr 0001  
                        _ADCON0 0FC2                 ??_display_speed 003A                          _ADRESH 0FC4  
                        _ADRESL 0FC3                          _TRISD7 7CAF                __end_of___xxtofl 0EEA  
             login_screen@i_194 0015               login_screen@check 0021                   login_screen@i 001C  
             login_screen@count 0025               login_screen@enter 001B                       ??___fldiv 001F  
                     ??___fltol 0034                       ??___lwdiv 0005                       ??___lwmod 0005  
              __end_of_init_adc 1684                __end_of_read_adc 1554                          isa$std 0001  
              __end_of_scan_key 0FF2                    __pdataCOMRAM 003D                    __mediumconst 0000  
                        tblptrh 0FF7                          tblptrl 0FF6                          tblptru 0FF8  
      ??_display_default_screen 003C       display_signature@gear_key 0007                    ___xxtofl@arg 0013  
                  ___xxtofl@exp 0012                    ___xxtofl@val 0009                      __accesstop 0060  
       __end_of__initialization 15F4                   ___rparam_used 0001                      ___fltol@f1 0030  
                 ?_login_screen 0001                  __pcstackCOMRAM 0001     __end_of_display_menu_screen 1624  
                ??_login_screen 000A                      _clcd_print 1554                      _clcd_putch 163E  
                    _clcd_write 1598              login_screen@F10491 004D                       ?___xxtofl 0009  
                     ?_init_adc 0001                       ?_read_adc 0001                       ?_scan_key 0001  
                       __Hparam 0000                         __Lparam 0000              login_screen@chance 0023  
                       ___fldiv 06B2                         ___fltol 0FF2                         ___lwdiv 1432  
                       ___lwmod 14A6                    __psmallconst 0600                         __pcinit 15D2  
                       __ramtop 0600                         __ptext0 1324                         __ptext1 0A4C  
                       __ptext2 1684                         __ptext3 1692                         __ptext4 11DA  
                       __ptext5 166E                         __ptext6 1602                         __ptext7 1624  
                       __ptext8 128A                         __ptext9 150A               __end_of_init_clcd 128A  
                    ??___xxtofl 000D                         main@key 003C            end_of_initialization 15F4  
                    ??_init_adc 0001                      ??_read_adc 0003                      ??_scan_key 0001  
                   ?_clcd_print 0003                     ?_clcd_putch 0008                     ?_clcd_write 0001  
                       postdec1 0FE5                         postdec2 0FDD                         postinc0 0FEE  
                       postinc1 0FE6                         postinc2 0FDE          _display_default_screen 1624  
               read_adc@channel 0008            __end_of_login_screen 0D36                   ___xxtofl@sign 0011  
                   ___fldiv@grs 002A                     ___fldiv@rem 0023           __end_of_display_speed 1324  
                 __pidataCOMRAM 1656                    _control_flag 0054             start_initialization 15D2  
        read_matrix_keypad@once 0053                  _init_configure 1684                login_screen@wait 0019  
                     ___fldiv@a 001B                       ___fldiv@b 0017            login_screen@pass_key 0024  
                   __pbssCOMRAM 0054            login_screen@password 000C              display_speed@speed 003A  
        __end_of_init_configure 1692                ___lwdiv@dividend 0001     read_matrix_keypad@detection 0001  
                      ?___fldiv 0017                        ?___fltol 0030                        ?___lwdiv 0001  
                      ?___lwmod 0001                     __smallconst 0600                ___lwdiv@quotient 0005  
                     _init_clcd 11DA                 ?_init_configure 0001                    ??_clcd_print 0006  
                  ??_clcd_putch 0009      __end_of_init_matrix_keypad 169A                    ??_clcd_write 0002  
       ?_display_default_screen 0001                    _login_screen 0A4C                       _signature 003D  
             _display_signature 10F8           clcd_write@control_bit 0001              ?_display_signature 0001  
            __end_of_clcd_print 1598              __end_of_clcd_putch 1656              __end_of_clcd_write 15D2  
           ??_display_signature 0006                      ?_init_clcd 0001                       copy_data0 15E6  
         read_matrix_keypad@key 0002  __end_of_display_default_screen 163E                        __Hrparam 0000  
                      __Lrparam 0000                    __Lsmallconst 0600       __end_of_display_signature 11DA  
    __end_of_read_matrix_keypad 1432             login_screen@success 001E             login_screen@user_in 0010  
                      ___xxtofl 0D36                 ___lwdiv@divisor 0003                 ___lwdiv@counter 0007  
                      __ptext10 163E                        __ptext11 0D36                        __ptext20 1598  
                      __ptext12 14A6                        __ptext13 1432                        __ptext14 0FF2  
                      __ptext15 06B2                        __ptext16 10F8                        __ptext17 13BC  
                      __ptext18 0EEA                        __ptext19 1554                        _init_adc 166E  
                      _read_adc 150A                        _scan_key 0EEA                        isa$xinst 0000  
           _display_menu_screen 1602                     ??_init_clcd 0003                ___lwmod@dividend 0001  
          ?_display_menu_screen 0001                 ___lwmod@divisor 0003                 ___lwmod@counter 0005  
       login_screen@cursor_flag 0020                ??_init_configure 0005                   _display_speed 128A  
         ??_display_menu_screen 0006  
